Archive member included to satisfy reference by file (symbol)

app/libapp.a(main.c.obj)      (--whole-archive)
app/libapp.a(board_functions.c.obj)
                              (--whole-archive)
app/libapp.a(adc.c.obj)       (--whole-archive)
zephyr/libzephyr.a(isr_tables.c.obj)
                              (--whole-archive)
zephyr/libzephyr.a(sw_isr_common.c.obj)
                              (--whole-archive)
zephyr/libzephyr.a(crc32_sw.c.obj)
                              (--whole-archive)
zephyr/libzephyr.a(crc16_sw.c.obj)
                              (--whole-archive)
zephyr/libzephyr.a(crc8_sw.c.obj)
                              (--whole-archive)
zephyr/libzephyr.a(crc7_sw.c.obj)
                              (--whole-archive)
zephyr/libzephyr.a(fdtable.c.obj)
                              (--whole-archive)
zephyr/libzephyr.a(hex.c.obj)
                              (--whole-archive)
zephyr/libzephyr.a(mempool.c.obj)
                              (--whole-archive)
zephyr/libzephyr.a(rb.c.obj)  (--whole-archive)
zephyr/libzephyr.a(sem.c.obj)
                              (--whole-archive)
zephyr/libzephyr.a(thread_entry.c.obj)
                              (--whole-archive)
zephyr/libzephyr.a(timeutil.c.obj)
                              (--whole-archive)
zephyr/libzephyr.a(work_q.c.obj)
                              (--whole-archive)
zephyr/libzephyr.a(printk.c.obj)
                              (--whole-archive)
zephyr/libzephyr.a(configs.c.obj)
                              (--whole-archive)
zephyr/libzephyr.a(soc.c.obj)
                              (--whole-archive)
zephyr/libzephyr.a(power.c.obj)
                              (--whole-archive)
zephyr/libzephyr.a(mpu_regions.c.obj)
                              (--whole-archive)
zephyr/libzephyr.a(utils.c.obj)
                              (--whole-archive)
zephyr/libzephyr.a(ecc_dh.c.obj)
                              (--whole-archive)
zephyr/libzephyr.a(ecc.c.obj)
                              (--whole-archive)
zephyr/libzephyr.a(aes_decrypt.c.obj)
                              (--whole-archive)
zephyr/libzephyr.a(aes_encrypt.c.obj)
                              (--whole-archive)
zephyr/libzephyr.a(cmac_mode.c.obj)
                              (--whole-archive)
zephyr/libzephyr.a(system_nrf52810.c.obj)
                              (--whole-archive)
zephyr/libzephyr.a(nrfx_glue.c.obj)
                              (--whole-archive)
zephyr/libzephyr.a(nrfx_pwm.c.obj)
                              (--whole-archive)
zephyr/libzephyr.a(addr_utils.c.obj)
                              (--whole-archive)
zephyr/libzephyr.a(rand32_entropy_device.c.obj)
                              (--whole-archive)
zephyr/libzephyr.a(power.c.obj)
                              (--whole-archive)
zephyr/libzephyr.a(policy_residency.c.obj)
                              (--whole-archive)
zephyr/libzephyr.a(uart_console.c.obj)
                              (--whole-archive)
zephyr/libzephyr.a(nrf_power_clock.c.obj)
                              (--whole-archive)
zephyr/libzephyr.a(sys_clock_init.c.obj)
                              (--whole-archive)
zephyr/libzephyr.a(nrf_rtc_timer.c.obj)
                              (--whole-archive)
zephyr/libzephyr.a(nus.c.obj)
                              (--whole-archive)
zephyr/arch/arm/core/libarch__arm__core.a(exc_exit.S.obj)
                              (--whole-archive)
zephyr/arch/arm/core/libarch__arm__core.a(swap_helper.S.obj)
                              (--whole-archive)
zephyr/arch/arm/core/libarch__arm__core.a(cpu_idle.S.obj)
                              (--whole-archive)
zephyr/arch/arm/core/libarch__arm__core.a(fault_s.S.obj)
                              (--whole-archive)
zephyr/arch/arm/core/libarch__arm__core.a(nmi_on_reset.S.obj)
                              (--whole-archive)
zephyr/arch/arm/core/libarch__arm__core.a(isr_wrapper.S.obj)
                              (--whole-archive)
zephyr/arch/arm/core/libarch__arm__core.a(swap.c.obj)
                              (--whole-archive)
zephyr/arch/arm/core/libarch__arm__core.a(irq_manage.c.obj)
                              (--whole-archive)
zephyr/arch/arm/core/libarch__arm__core.a(thread.c.obj)
                              (--whole-archive)
zephyr/arch/arm/core/libarch__arm__core.a(fatal.c.obj)
                              (--whole-archive)
zephyr/arch/arm/core/libarch__arm__core.a(nmi.c.obj)
                              (--whole-archive)
zephyr/arch/arm/core/libarch__arm__core.a(prep_c.c.obj)
                              (--whole-archive)
zephyr/arch/arm/core/cortex_m/libarch__arm__core__cortex_m.a(vector_table.S.obj)
                              (--whole-archive)
zephyr/arch/arm/core/cortex_m/libarch__arm__core__cortex_m.a(reset.S.obj)
                              (--whole-archive)
zephyr/arch/arm/core/cortex_m/libarch__arm__core__cortex_m.a(fault.c.obj)
                              (--whole-archive)
zephyr/arch/arm/core/cortex_m/libarch__arm__core__cortex_m.a(scb.c.obj)
                              (--whole-archive)
zephyr/arch/arm/core/cortex_m/libarch__arm__core__cortex_m.a(irq_init.c.obj)
                              (--whole-archive)
zephyr/arch/arm/core/cortex_m/libarch__arm__core__cortex_m.a(thread_abort.c.obj)
                              (--whole-archive)
zephyr/arch/arm/core/cortex_m/mpu/libarch__arm__core__cortex_m__mpu.a(arm_core_mpu.c.obj)
                              (--whole-archive)
zephyr/arch/arm/core/cortex_m/mpu/libarch__arm__core__cortex_m__mpu.a(arm_mpu.c.obj)
                              (--whole-archive)
zephyr/lib/libc/minimal/liblib__libc__minimal.a(atoi.c.obj)
                              (--whole-archive)
zephyr/lib/libc/minimal/liblib__libc__minimal.a(strtol.c.obj)
                              (--whole-archive)
zephyr/lib/libc/minimal/liblib__libc__minimal.a(strtoul.c.obj)
                              (--whole-archive)
zephyr/lib/libc/minimal/liblib__libc__minimal.a(malloc.c.obj)
                              (--whole-archive)
zephyr/lib/libc/minimal/liblib__libc__minimal.a(bsearch.c.obj)
                              (--whole-archive)
zephyr/lib/libc/minimal/liblib__libc__minimal.a(exit.c.obj)
                              (--whole-archive)
zephyr/lib/libc/minimal/liblib__libc__minimal.a(strncasecmp.c.obj)
                              (--whole-archive)
zephyr/lib/libc/minimal/liblib__libc__minimal.a(strstr.c.obj)
                              (--whole-archive)
zephyr/lib/libc/minimal/liblib__libc__minimal.a(string.c.obj)
                              (--whole-archive)
zephyr/lib/libc/minimal/liblib__libc__minimal.a(strspn.c.obj)
                              (--whole-archive)
zephyr/lib/libc/minimal/liblib__libc__minimal.a(prf.c.obj)
                              (--whole-archive)
zephyr/lib/libc/minimal/liblib__libc__minimal.a(stdout_console.c.obj)
                              (--whole-archive)
zephyr/lib/libc/minimal/liblib__libc__minimal.a(sprintf.c.obj)
                              (--whole-archive)
zephyr/lib/libc/minimal/liblib__libc__minimal.a(fprintf.c.obj)
                              (--whole-archive)
zephyr/lib/libc/minimal/liblib__libc__minimal.a(gmtime.c.obj)
                              (--whole-archive)
zephyr/subsys/bluetooth/common/libsubsys__bluetooth__common.a(dummy.c.obj)
                              (--whole-archive)
zephyr/subsys/bluetooth/common/libsubsys__bluetooth__common.a(log.c.obj)
                              (--whole-archive)
zephyr/subsys/bluetooth/common/libsubsys__bluetooth__common.a(rpa.c.obj)
                              (--whole-archive)
zephyr/subsys/bluetooth/host/libsubsys__bluetooth__host.a(hci_ecc.c.obj)
                              (--whole-archive)
zephyr/subsys/bluetooth/host/libsubsys__bluetooth__host.a(uuid.c.obj)
                              (--whole-archive)
zephyr/subsys/bluetooth/host/libsubsys__bluetooth__host.a(hci_core.c.obj)
                              (--whole-archive)
zephyr/subsys/bluetooth/host/libsubsys__bluetooth__host.a(conn.c.obj)
                              (--whole-archive)
zephyr/subsys/bluetooth/host/libsubsys__bluetooth__host.a(l2cap.c.obj)
                              (--whole-archive)
zephyr/subsys/bluetooth/host/libsubsys__bluetooth__host.a(att.c.obj)
                              (--whole-archive)
zephyr/subsys/bluetooth/host/libsubsys__bluetooth__host.a(gatt.c.obj)
                              (--whole-archive)
zephyr/subsys/bluetooth/host/libsubsys__bluetooth__host.a(smp.c.obj)
                              (--whole-archive)
zephyr/subsys/bluetooth/host/libsubsys__bluetooth__host.a(keys.c.obj)
                              (--whole-archive)
zephyr/subsys/bluetooth/controller/libsubsys__bluetooth__controller.a(mem.c.obj)
                              (--whole-archive)
zephyr/subsys/bluetooth/controller/libsubsys__bluetooth__controller.a(memq.c.obj)
                              (--whole-archive)
zephyr/subsys/bluetooth/controller/libsubsys__bluetooth__controller.a(mayfly.c.obj)
                              (--whole-archive)
zephyr/subsys/bluetooth/controller/libsubsys__bluetooth__controller.a(util.c.obj)
                              (--whole-archive)
zephyr/subsys/bluetooth/controller/libsubsys__bluetooth__controller.a(ticker.c.obj)
                              (--whole-archive)
zephyr/subsys/bluetooth/controller/libsubsys__bluetooth__controller.a(ll_addr.c.obj)
                              (--whole-archive)
zephyr/subsys/bluetooth/controller/libsubsys__bluetooth__controller.a(ll_tx_pwr.c.obj)
                              (--whole-archive)
zephyr/subsys/bluetooth/controller/libsubsys__bluetooth__controller.a(hci_driver.c.obj)
                              (--whole-archive)
zephyr/subsys/bluetooth/controller/libsubsys__bluetooth__controller.a(hci.c.obj)
                              (--whole-archive)
zephyr/subsys/bluetooth/controller/libsubsys__bluetooth__controller.a(crypto.c.obj)
                              (--whole-archive)
zephyr/subsys/bluetooth/controller/libsubsys__bluetooth__controller.a(ctrl.c.obj)
                              (--whole-archive)
zephyr/subsys/bluetooth/controller/libsubsys__bluetooth__controller.a(ll.c.obj)
                              (--whole-archive)
zephyr/subsys/bluetooth/controller/libsubsys__bluetooth__controller.a(ll_adv.c.obj)
                              (--whole-archive)
zephyr/subsys/bluetooth/controller/libsubsys__bluetooth__controller.a(ll_filter.c.obj)
                              (--whole-archive)
zephyr/subsys/bluetooth/controller/libsubsys__bluetooth__controller.a(ll_adv_aux.c.obj)
                              (--whole-archive)
zephyr/subsys/bluetooth/controller/libsubsys__bluetooth__controller.a(cntr.c.obj)
                              (--whole-archive)
zephyr/subsys/bluetooth/controller/libsubsys__bluetooth__controller.a(ecb.c.obj)
                              (--whole-archive)
zephyr/subsys/bluetooth/controller/libsubsys__bluetooth__controller.a(radio.c.obj)
                              (--whole-archive)
zephyr/subsys/bluetooth/controller/libsubsys__bluetooth__controller.a(mayfly.c.obj)
                              (--whole-archive)
zephyr/subsys/bluetooth/controller/libsubsys__bluetooth__controller.a(ticker.c.obj)
                              (--whole-archive)
zephyr/subsys/net/libsubsys__net.a(buf.c.obj)
                              (--whole-archive)
zephyr/drivers/gpio/libdrivers__gpio.a(gpio_nrfx.c.obj)
                              (--whole-archive)
zephyr/drivers/pwm/libdrivers__pwm.a(pwm_nrfx.c.obj)
                              (--whole-archive)
zephyr/drivers/serial/libdrivers__serial.a(uart_nrfx_uarte.c.obj)
                              (--whole-archive)
zephyr/drivers/entropy/libdrivers__entropy.a(entropy_nrf5.c.obj)
                              (--whole-archive)
zephyr/modules/nrf/lib/dk_buttons_and_leds/lib..__nrf__lib__dk_buttons_and_leds.a(dk_buttons_and_leds.c.obj)
                              (--whole-archive)
zephyr/kernel/libkernel.a(device.c.obj)
                              app/libapp.a(main.c.obj) (z_impl_device_get_binding)
zephyr/kernel/libkernel.a(errno.c.obj)
                              zephyr/libzephyr.a(fdtable.c.obj) (z_impl_z_errno)
zephyr/kernel/libkernel.a(fatal.c.obj)
                              zephyr/arch/arm/core/libarch__arm__core.a(fatal.c.obj) (z_fatal_print)
zephyr/kernel/libkernel.a(idle.c.obj)
                              zephyr/arch/arm/core/libarch__arm__core.a(isr_wrapper.S.obj) (z_sys_power_save_idle_exit)
zephyr/kernel/libkernel.a(init.c.obj)
                              zephyr/arch/arm/core/libarch__arm__core.a(prep_c.c.obj) (z_bss_zero)
zephyr/kernel/libkernel.a(mempool.c.obj)
                              zephyr/subsys/net/libsubsys__net.a(buf.c.obj) (k_mem_pool_alloc)
zephyr/kernel/libkernel.a(mutex.c.obj)
                              zephyr/libzephyr.a(fdtable.c.obj) (z_impl_k_mutex_lock)
zephyr/kernel/libkernel.a(queue.c.obj)
                              zephyr/libzephyr.a(work_q.c.obj) (z_impl_k_queue_init)
zephyr/kernel/libkernel.a(sched.c.obj)
                              zephyr/kernel/libkernel.a(mempool.c.obj) (z_reschedule)
zephyr/kernel/libkernel.a(sem.c.obj)
                              zephyr/libzephyr.a(sem.c.obj) (z_impl_k_sem_init)
zephyr/kernel/libkernel.a(system_work_q.c.obj)
                              zephyr/subsys/bluetooth/host/libsubsys__bluetooth__host.a(hci_core.c.obj) (k_sys_work_q)
zephyr/kernel/libkernel.a(thread.c.obj)
                              app/libapp.a(main.c.obj) (z_impl_k_busy_wait)
zephyr/kernel/libkernel.a(work_q.c.obj)
                              zephyr/kernel/libkernel.a(system_work_q.c.obj) (k_work_q_start)
zephyr/kernel/libkernel.a(timeout.c.obj)
                              zephyr/kernel/libkernel.a(sched.c.obj) (z_add_timeout)
zephyr/kernel/libkernel.a(poll.c.obj)
                              zephyr/subsys/bluetooth/host/libsubsys__bluetooth__host.a(conn.c.obj) (k_poll_event_init)
c:/program files (x86)/gnu tools arm embedded/7 2018-q2-update/bin/../lib/gcc/arm-none-eabi/7.3.1/thumb/v7e-m\libgcc.a(_arm_addsubsf3.o)
                              app/libapp.a(main.c.obj) (__aeabi_i2f)
c:/program files (x86)/gnu tools arm embedded/7 2018-q2-update/bin/../lib/gcc/arm-none-eabi/7.3.1/thumb/v7e-m\libgcc.a(_arm_muldivsf3.o)
                              app/libapp.a(main.c.obj) (__aeabi_fmul)
c:/program files (x86)/gnu tools arm embedded/7 2018-q2-update/bin/../lib/gcc/arm-none-eabi/7.3.1/thumb/v7e-m\libgcc.a(_arm_fixsfsi.o)
                              app/libapp.a(adc.c.obj) (__aeabi_f2iz)
c:/program files (x86)/gnu tools arm embedded/7 2018-q2-update/bin/../lib/gcc/arm-none-eabi/7.3.1/thumb/v7e-m\libgcc.a(_arm_fixunssfsi.o)
                              app/libapp.a(main.c.obj) (__aeabi_f2uiz)
c:/program files (x86)/gnu tools arm embedded/7 2018-q2-update/bin/../lib/gcc/arm-none-eabi/7.3.1/thumb/v7e-m\libgcc.a(_aeabi_ldivmod.o)
                              zephyr/libzephyr.a(timeutil.c.obj) (__aeabi_ldivmod)
c:/program files (x86)/gnu tools arm embedded/7 2018-q2-update/bin/../lib/gcc/arm-none-eabi/7.3.1/thumb/v7e-m\libgcc.a(_aeabi_uldivmod.o)
                              app/libapp.a(main.c.obj) (__aeabi_uldivmod)
c:/program files (x86)/gnu tools arm embedded/7 2018-q2-update/bin/../lib/gcc/arm-none-eabi/7.3.1/thumb/v7e-m\libgcc.a(_udivmoddi4.o)
                              c:/program files (x86)/gnu tools arm embedded/7 2018-q2-update/bin/../lib/gcc/arm-none-eabi/7.3.1/thumb/v7e-m\libgcc.a(_aeabi_ldivmod.o) (__udivmoddi4)
c:/program files (x86)/gnu tools arm embedded/7 2018-q2-update/bin/../lib/gcc/arm-none-eabi/7.3.1/thumb/v7e-m\libgcc.a(_dvmd_tls.o)
                              c:/program files (x86)/gnu tools arm embedded/7 2018-q2-update/bin/../lib/gcc/arm-none-eabi/7.3.1/thumb/v7e-m\libgcc.a(_aeabi_ldivmod.o) (__aeabi_ldiv0)

Discarded input sections

 .text          0x00000000        0x0 zephyr/CMakeFiles/zephyr_prebuilt.dir/misc/empty_file.c.obj
 .data          0x00000000        0x0 zephyr/CMakeFiles/zephyr_prebuilt.dir/misc/empty_file.c.obj
 .bss           0x00000000        0x0 zephyr/CMakeFiles/zephyr_prebuilt.dir/misc/empty_file.c.obj
 .debug_line    0x00000000        0x0 zephyr/CMakeFiles/zephyr_prebuilt.dir/misc/empty_file.c.obj
 .debug_str     0x00000000      0x1c7 zephyr/CMakeFiles/zephyr_prebuilt.dir/misc/empty_file.c.obj
 .comment       0x00000000       0x80 zephyr/CMakeFiles/zephyr_prebuilt.dir/misc/empty_file.c.obj
 .text          0x00000000        0x0 app/libapp.a(main.c.obj)
 .data          0x00000000        0x0 app/libapp.a(main.c.obj)
 .bss           0x00000000        0x0 app/libapp.a(main.c.obj)
 .text.pwm_thread
                0x00000000      0x100 app/libapp.a(main.c.obj)
 .text.bitbang_pwm_thread
                0x00000000       0x30 app/libapp.a(main.c.obj)
 .rodata.ble_write_thread_id
                0x00000000        0x4 app/libapp.a(main.c.obj)
 .rodata.button_changed.str1.1
                0x00000000       0x31 app/libapp.a(main.c.obj)
 .rodata.led_blink_thread_id
                0x00000000        0x4 app/libapp.a(main.c.obj)
 .rodata.man_pwm_thread_id
                0x00000000        0x4 app/libapp.a(main.c.obj)
 .text          0x00000000        0x0 app/libapp.a(board_functions.c.obj)
 .data          0x00000000        0x0 app/libapp.a(board_functions.c.obj)
 .bss           0x00000000        0x0 app/libapp.a(board_functions.c.obj)
 .text          0x00000000        0x0 app/libapp.a(adc.c.obj)
 .data          0x00000000        0x0 app/libapp.a(adc.c.obj)
 .bss           0x00000000        0x0 app/libapp.a(adc.c.obj)
 .text          0x00000000        0x0 zephyr/libzephyr.a(isr_tables.c.obj)
 .data          0x00000000        0x0 zephyr/libzephyr.a(isr_tables.c.obj)
 .bss           0x00000000        0x0 zephyr/libzephyr.a(isr_tables.c.obj)
 .text          0x00000000        0x0 zephyr/libzephyr.a(sw_isr_common.c.obj)
 .data          0x00000000        0x0 zephyr/libzephyr.a(sw_isr_common.c.obj)
 .bss           0x00000000        0x0 zephyr/libzephyr.a(sw_isr_common.c.obj)
 .debug_info    0x00000000      0x196 zephyr/libzephyr.a(sw_isr_common.c.obj)
 .debug_abbrev  0x00000000       0xbe zephyr/libzephyr.a(sw_isr_common.c.obj)
 .debug_aranges
                0x00000000       0x18 zephyr/libzephyr.a(sw_isr_common.c.obj)
 .debug_line    0x00000000      0x1ed zephyr/libzephyr.a(sw_isr_common.c.obj)
 .debug_str     0x00000000      0x32c zephyr/libzephyr.a(sw_isr_common.c.obj)
 .comment       0x00000000       0x80 zephyr/libzephyr.a(sw_isr_common.c.obj)
 .text          0x00000000        0x0 zephyr/libzephyr.a(crc32_sw.c.obj)
 .data          0x00000000        0x0 zephyr/libzephyr.a(crc32_sw.c.obj)
 .bss           0x00000000        0x0 zephyr/libzephyr.a(crc32_sw.c.obj)
 .text.crc32_ieee_update
                0x00000000       0x30 zephyr/libzephyr.a(crc32_sw.c.obj)
 .text.crc32_ieee
                0x00000000        0xa zephyr/libzephyr.a(crc32_sw.c.obj)
 .debug_info    0x00000000      0x156 zephyr/libzephyr.a(crc32_sw.c.obj)
 .debug_abbrev  0x00000000       0xcb zephyr/libzephyr.a(crc32_sw.c.obj)
 .debug_loc     0x00000000      0x12b zephyr/libzephyr.a(crc32_sw.c.obj)
 .debug_aranges
                0x00000000       0x28 zephyr/libzephyr.a(crc32_sw.c.obj)
 .debug_ranges  0x00000000       0x50 zephyr/libzephyr.a(crc32_sw.c.obj)
 .debug_line    0x00000000      0x149 zephyr/libzephyr.a(crc32_sw.c.obj)
 .debug_str     0x00000000      0x27f zephyr/libzephyr.a(crc32_sw.c.obj)
 .comment       0x00000000       0x80 zephyr/libzephyr.a(crc32_sw.c.obj)
 .debug_frame   0x00000000       0x3c zephyr/libzephyr.a(crc32_sw.c.obj)
 .text          0x00000000        0x0 zephyr/libzephyr.a(crc16_sw.c.obj)
 .data          0x00000000        0x0 zephyr/libzephyr.a(crc16_sw.c.obj)
 .bss           0x00000000        0x0 zephyr/libzephyr.a(crc16_sw.c.obj)
 .text.crc16    0x00000000       0x58 zephyr/libzephyr.a(crc16_sw.c.obj)
 .text.crc16_ccitt
                0x00000000       0x26 zephyr/libzephyr.a(crc16_sw.c.obj)
 .text.crc16_itu_t
                0x00000000       0x28 zephyr/libzephyr.a(crc16_sw.c.obj)
 .debug_info    0x00000000      0x1fd zephyr/libzephyr.a(crc16_sw.c.obj)
 .debug_abbrev  0x00000000       0xdc zephyr/libzephyr.a(crc16_sw.c.obj)
 .debug_loc     0x00000000      0x259 zephyr/libzephyr.a(crc16_sw.c.obj)
 .debug_aranges
                0x00000000       0x30 zephyr/libzephyr.a(crc16_sw.c.obj)
 .debug_ranges  0x00000000       0x40 zephyr/libzephyr.a(crc16_sw.c.obj)
 .debug_line    0x00000000      0x193 zephyr/libzephyr.a(crc16_sw.c.obj)
 .debug_str     0x00000000      0x2ae zephyr/libzephyr.a(crc16_sw.c.obj)
 .comment       0x00000000       0x80 zephyr/libzephyr.a(crc16_sw.c.obj)
 .debug_frame   0x00000000       0x58 zephyr/libzephyr.a(crc16_sw.c.obj)
 .text          0x00000000        0x0 zephyr/libzephyr.a(crc8_sw.c.obj)
 .data          0x00000000        0x0 zephyr/libzephyr.a(crc8_sw.c.obj)
 .bss           0x00000000        0x0 zephyr/libzephyr.a(crc8_sw.c.obj)
 .text.crc8_ccitt
                0x00000000       0x2c zephyr/libzephyr.a(crc8_sw.c.obj)
 .rodata.crc8_ccitt_small_table
                0x00000000       0x10 zephyr/libzephyr.a(crc8_sw.c.obj)
 .debug_info    0x00000000      0x11b zephyr/libzephyr.a(crc8_sw.c.obj)
 .debug_abbrev  0x00000000       0xa7 zephyr/libzephyr.a(crc8_sw.c.obj)
 .debug_loc     0x00000000       0xd4 zephyr/libzephyr.a(crc8_sw.c.obj)
 .debug_aranges
                0x00000000       0x20 zephyr/libzephyr.a(crc8_sw.c.obj)
 .debug_ranges  0x00000000       0x10 zephyr/libzephyr.a(crc8_sw.c.obj)
 .debug_line    0x00000000      0x12d zephyr/libzephyr.a(crc8_sw.c.obj)
 .debug_str     0x00000000      0x278 zephyr/libzephyr.a(crc8_sw.c.obj)
 .comment       0x00000000       0x80 zephyr/libzephyr.a(crc8_sw.c.obj)
 .debug_frame   0x00000000       0x28 zephyr/libzephyr.a(crc8_sw.c.obj)
 .text          0x00000000        0x0 zephyr/libzephyr.a(crc7_sw.c.obj)
 .data          0x00000000        0x0 zephyr/libzephyr.a(crc7_sw.c.obj)
 .bss           0x00000000        0x0 zephyr/libzephyr.a(crc7_sw.c.obj)
 .text.crc7_be  0x00000000       0x20 zephyr/libzephyr.a(crc7_sw.c.obj)
 .debug_info    0x00000000       0xf8 zephyr/libzephyr.a(crc7_sw.c.obj)
 .debug_abbrev  0x00000000       0x99 zephyr/libzephyr.a(crc7_sw.c.obj)
 .debug_loc     0x00000000       0x9e zephyr/libzephyr.a(crc7_sw.c.obj)
 .debug_aranges
                0x00000000       0x20 zephyr/libzephyr.a(crc7_sw.c.obj)
 .debug_ranges  0x00000000       0x10 zephyr/libzephyr.a(crc7_sw.c.obj)
 .debug_line    0x00000000      0x11e zephyr/libzephyr.a(crc7_sw.c.obj)
 .debug_str     0x00000000      0x263 zephyr/libzephyr.a(crc7_sw.c.obj)
 .comment       0x00000000       0x80 zephyr/libzephyr.a(crc7_sw.c.obj)
 .debug_frame   0x00000000       0x20 zephyr/libzephyr.a(crc7_sw.c.obj)
 .text          0x00000000        0x0 zephyr/libzephyr.a(fdtable.c.obj)
 .data          0x00000000        0x0 zephyr/libzephyr.a(fdtable.c.obj)
 .bss           0x00000000        0x0 zephyr/libzephyr.a(fdtable.c.obj)
 .text._check_fd
                0x00000000       0x28 zephyr/libzephyr.a(fdtable.c.obj)
 .text.z_get_fd_obj
                0x00000000       0x34 zephyr/libzephyr.a(fdtable.c.obj)
 .text.z_get_fd_obj_and_vtable
                0x00000000       0x28 zephyr/libzephyr.a(fdtable.c.obj)
 .text.z_reserve_fd
                0x00000000       0x44 zephyr/libzephyr.a(fdtable.c.obj)
 .text.z_finalize_fd
                0x00000000       0x14 zephyr/libzephyr.a(fdtable.c.obj)
 .text.z_free_fd
                0x00000000       0x10 zephyr/libzephyr.a(fdtable.c.obj)
 .text.z_alloc_fd
                0x00000000       0x20 zephyr/libzephyr.a(fdtable.c.obj)
 .bss.fdtable   0x00000000       0x20 zephyr/libzephyr.a(fdtable.c.obj)
 .text          0x00000000        0x0 zephyr/libzephyr.a(hex.c.obj)
 .data          0x00000000        0x0 zephyr/libzephyr.a(hex.c.obj)
 .bss           0x00000000        0x0 zephyr/libzephyr.a(hex.c.obj)
 .text.char2hex
                0x00000000       0x30 zephyr/libzephyr.a(hex.c.obj)
 .text.hex2char
                0x00000000       0x1e zephyr/libzephyr.a(hex.c.obj)
 .text.bin2hex  0x00000000       0x56 zephyr/libzephyr.a(hex.c.obj)
 .text.hex2bin  0x00000000       0x70 zephyr/libzephyr.a(hex.c.obj)
 .debug_info    0x00000000      0x2af zephyr/libzephyr.a(hex.c.obj)
 .debug_abbrev  0x00000000      0x145 zephyr/libzephyr.a(hex.c.obj)
 .debug_loc     0x00000000      0x2bc zephyr/libzephyr.a(hex.c.obj)
 .debug_aranges
                0x00000000       0x38 zephyr/libzephyr.a(hex.c.obj)
 .debug_ranges  0x00000000       0x40 zephyr/libzephyr.a(hex.c.obj)
 .debug_line    0x00000000      0x187 zephyr/libzephyr.a(hex.c.obj)
 .debug_str     0x00000000      0x287 zephyr/libzephyr.a(hex.c.obj)
 .comment       0x00000000       0x80 zephyr/libzephyr.a(hex.c.obj)
 .debug_frame   0x00000000       0x78 zephyr/libzephyr.a(hex.c.obj)
 .text          0x00000000        0x0 zephyr/libzephyr.a(mempool.c.obj)
 .data          0x00000000        0x0 zephyr/libzephyr.a(mempool.c.obj)
 .bss           0x00000000        0x0 zephyr/libzephyr.a(mempool.c.obj)
 .text.sys_mem_pool_alloc
                0x00000000       0x68 zephyr/libzephyr.a(mempool.c.obj)
 .text.sys_mem_pool_free
                0x00000000       0x4c zephyr/libzephyr.a(mempool.c.obj)
 .text          0x00000000        0x0 zephyr/libzephyr.a(rb.c.obj)
 .data          0x00000000        0x0 zephyr/libzephyr.a(rb.c.obj)
 .bss           0x00000000        0x0 zephyr/libzephyr.a(rb.c.obj)
 .text.set_child
                0x00000000       0x12 zephyr/libzephyr.a(rb.c.obj)
 .text.find_and_stack
                0x00000000       0x38 zephyr/libzephyr.a(rb.c.obj)
 .text.rotate   0x00000000       0x90 zephyr/libzephyr.a(rb.c.obj)
 .text.fix_missing_black
                0x00000000      0x170 zephyr/libzephyr.a(rb.c.obj)
 .text.stack_left_limb
                0x00000000       0x36 zephyr/libzephyr.a(rb.c.obj)
 .text.z_rb_get_minmax
                0x00000000       0x18 zephyr/libzephyr.a(rb.c.obj)
 .text.rb_insert
                0x00000000      0x130 zephyr/libzephyr.a(rb.c.obj)
 .text.rb_remove
                0x00000000      0x1b8 zephyr/libzephyr.a(rb.c.obj)
 .text.z_rb_walk
                0x00000000       0x24 zephyr/libzephyr.a(rb.c.obj)
 .text.z_rb_child
                0x00000000        0xe zephyr/libzephyr.a(rb.c.obj)
 .text.z_rb_is_black
                0x00000000        0x8 zephyr/libzephyr.a(rb.c.obj)
 .text.rb_contains
                0x00000000       0x2c zephyr/libzephyr.a(rb.c.obj)
 .text.z_rb_foreach_next
                0x00000000       0x58 zephyr/libzephyr.a(rb.c.obj)
 .debug_info    0x00000000     0x200d zephyr/libzephyr.a(rb.c.obj)
 .debug_abbrev  0x00000000      0x4d1 zephyr/libzephyr.a(rb.c.obj)
 .debug_loc     0x00000000     0x14ac zephyr/libzephyr.a(rb.c.obj)
 .debug_aranges
                0x00000000       0x80 zephyr/libzephyr.a(rb.c.obj)
 .debug_ranges  0x00000000      0x318 zephyr/libzephyr.a(rb.c.obj)
 .debug_line    0x00000000      0x75b zephyr/libzephyr.a(rb.c.obj)
 .debug_str     0x00000000      0x7f3 zephyr/libzephyr.a(rb.c.obj)
 .comment       0x00000000       0x80 zephyr/libzephyr.a(rb.c.obj)
 .debug_frame   0x00000000      0x1bc zephyr/libzephyr.a(rb.c.obj)
 .text          0x00000000        0x0 zephyr/libzephyr.a(sem.c.obj)
 .data          0x00000000        0x0 zephyr/libzephyr.a(sem.c.obj)
 .bss           0x00000000        0x0 zephyr/libzephyr.a(sem.c.obj)
 .text.sys_sem_init
                0x00000000        0xa zephyr/libzephyr.a(sem.c.obj)
 .text.sys_sem_give
                0x00000000        0xa zephyr/libzephyr.a(sem.c.obj)
 .text.sys_sem_take
                0x00000000       0x1e zephyr/libzephyr.a(sem.c.obj)
 .text.sys_sem_count_get
                0x00000000        0x4 zephyr/libzephyr.a(sem.c.obj)
 .debug_info    0x00000000      0x9a7 zephyr/libzephyr.a(sem.c.obj)
 .debug_abbrev  0x00000000      0x242 zephyr/libzephyr.a(sem.c.obj)
 .debug_loc     0x00000000      0x1ce zephyr/libzephyr.a(sem.c.obj)
 .debug_aranges
                0x00000000       0x38 zephyr/libzephyr.a(sem.c.obj)
 .debug_ranges  0x00000000       0x28 zephyr/libzephyr.a(sem.c.obj)
 .debug_line    0x00000000      0x411 zephyr/libzephyr.a(sem.c.obj)
 .debug_str     0x00000000      0x6fb zephyr/libzephyr.a(sem.c.obj)
 .comment       0x00000000       0x80 zephyr/libzephyr.a(sem.c.obj)
 .debug_frame   0x00000000       0x68 zephyr/libzephyr.a(sem.c.obj)
 .text          0x00000000        0x0 zephyr/libzephyr.a(thread_entry.c.obj)
 .data          0x00000000        0x0 zephyr/libzephyr.a(thread_entry.c.obj)
 .bss           0x00000000        0x0 zephyr/libzephyr.a(thread_entry.c.obj)
 .text          0x00000000        0x0 zephyr/libzephyr.a(timeutil.c.obj)
 .data          0x00000000        0x0 zephyr/libzephyr.a(timeutil.c.obj)
 .bss           0x00000000        0x0 zephyr/libzephyr.a(timeutil.c.obj)
 .text.timeutil_timegm
                0x00000000       0xec zephyr/libzephyr.a(timeutil.c.obj)
 .debug_info    0x00000000      0x206 zephyr/libzephyr.a(timeutil.c.obj)
 .debug_abbrev  0x00000000       0xff zephyr/libzephyr.a(timeutil.c.obj)
 .debug_loc     0x00000000      0x1a6 zephyr/libzephyr.a(timeutil.c.obj)
 .debug_aranges
                0x00000000       0x20 zephyr/libzephyr.a(timeutil.c.obj)
 .debug_ranges  0x00000000       0x38 zephyr/libzephyr.a(timeutil.c.obj)
 .debug_line    0x00000000      0x130 zephyr/libzephyr.a(timeutil.c.obj)
 .debug_str     0x00000000      0x2d1 zephyr/libzephyr.a(timeutil.c.obj)
 .comment       0x00000000       0x80 zephyr/libzephyr.a(timeutil.c.obj)
 .debug_frame   0x00000000       0x34 zephyr/libzephyr.a(timeutil.c.obj)
 .text          0x00000000        0x0 zephyr/libzephyr.a(work_q.c.obj)
 .data          0x00000000        0x0 zephyr/libzephyr.a(work_q.c.obj)
 .bss           0x00000000        0x0 zephyr/libzephyr.a(work_q.c.obj)
 .text.k_work_q_user_start
                0x00000000       0x54 zephyr/libzephyr.a(work_q.c.obj)
 .rodata.k_work_q_user_start.str1.1
                0x00000000        0xa zephyr/libzephyr.a(work_q.c.obj)
 .text          0x00000000        0x0 zephyr/libzephyr.a(printk.c.obj)
 .data          0x00000000        0x0 zephyr/libzephyr.a(printk.c.obj)
 .bss           0x00000000        0x0 zephyr/libzephyr.a(printk.c.obj)
 .text.__printk_get_hook
                0x00000000        0xc zephyr/libzephyr.a(printk.c.obj)
 .text.z_impl_k_str_out
                0x00000000       0x1c zephyr/libzephyr.a(printk.c.obj)
 .text          0x00000000        0x0 zephyr/libzephyr.a(configs.c.obj)
 .data          0x00000000        0x0 zephyr/libzephyr.a(configs.c.obj)
 .bss           0x00000000        0x0 zephyr/libzephyr.a(configs.c.obj)
 .text          0x00000000        0x0 zephyr/libzephyr.a(soc.c.obj)
 .data          0x00000000        0x0 zephyr/libzephyr.a(soc.c.obj)
 .bss           0x00000000        0x0 zephyr/libzephyr.a(soc.c.obj)
 .text.sys_arch_reboot
                0x00000000       0x2c zephyr/libzephyr.a(soc.c.obj)
 .text.z_arch_busy_wait
                0x00000000       0x14 zephyr/libzephyr.a(soc.c.obj)
 .rodata.delay_machine_code.9698
                0x00000000        0x6 zephyr/libzephyr.a(soc.c.obj)
 .text          0x00000000        0x0 zephyr/libzephyr.a(power.c.obj)
 .data          0x00000000        0x0 zephyr/libzephyr.a(power.c.obj)
 .bss           0x00000000        0x0 zephyr/libzephyr.a(power.c.obj)
 .text.sys_set_power_state
                0x00000000        0x2 zephyr/libzephyr.a(power.c.obj)
 .text._sys_pm_power_state_exit_post_ops
                0x00000000        0xc zephyr/libzephyr.a(power.c.obj)
 .debug_info    0x00000000      0x93c zephyr/libzephyr.a(power.c.obj)
 .debug_abbrev  0x00000000      0x22c zephyr/libzephyr.a(power.c.obj)
 .debug_loc     0x00000000       0x14 zephyr/libzephyr.a(power.c.obj)
 .debug_aranges
                0x00000000       0x28 zephyr/libzephyr.a(power.c.obj)
 .debug_ranges  0x00000000       0x18 zephyr/libzephyr.a(power.c.obj)
 .debug_line    0x00000000      0x4e6 zephyr/libzephyr.a(power.c.obj)
 .debug_str     0x00000000      0x82b zephyr/libzephyr.a(power.c.obj)
 .comment       0x00000000       0x80 zephyr/libzephyr.a(power.c.obj)
 .debug_frame   0x00000000       0x30 zephyr/libzephyr.a(power.c.obj)
 .text          0x00000000        0x0 zephyr/libzephyr.a(mpu_regions.c.obj)
 .data          0x00000000        0x0 zephyr/libzephyr.a(mpu_regions.c.obj)
 .bss           0x00000000        0x0 zephyr/libzephyr.a(mpu_regions.c.obj)
 .text          0x00000000        0x0 zephyr/libzephyr.a(utils.c.obj)
 .data          0x00000000        0x0 zephyr/libzephyr.a(utils.c.obj)
 .bss           0x00000000        0x0 zephyr/libzephyr.a(utils.c.obj)
 .text._compare
                0x00000000       0x1a zephyr/libzephyr.a(utils.c.obj)
 .text          0x00000000        0x0 zephyr/libzephyr.a(ecc_dh.c.obj)
 .data          0x00000000        0x0 zephyr/libzephyr.a(ecc_dh.c.obj)
 .bss           0x00000000        0x0 zephyr/libzephyr.a(ecc_dh.c.obj)
 .text.uECC_make_key_with_d
                0x00000000       0x64 zephyr/libzephyr.a(ecc_dh.c.obj)
 .text          0x00000000        0x0 zephyr/libzephyr.a(ecc.c.obj)
 .data          0x00000000        0x0 zephyr/libzephyr.a(ecc.c.obj)
 .bss           0x00000000        0x0 zephyr/libzephyr.a(ecc.c.obj)
 .text.uECC_set_rng
                0x00000000        0xc zephyr/libzephyr.a(ecc.c.obj)
 .text.uECC_curve_private_key_size
                0x00000000        0xe zephyr/libzephyr.a(ecc.c.obj)
 .text.uECC_curve_public_key_size
                0x00000000        0x8 zephyr/libzephyr.a(ecc.c.obj)
 .text.cond_set
                0x00000000        0xc zephyr/libzephyr.a(ecc.c.obj)
 .text.uECC_vli_cmp
                0x00000000       0x32 zephyr/libzephyr.a(ecc.c.obj)
 .text.uECC_vli_modMult
                0x00000000       0x24 zephyr/libzephyr.a(ecc.c.obj)
 .text.uECC_secp256r1
                0x00000000        0x8 zephyr/libzephyr.a(ecc.c.obj)
 .text.uECC_generate_random_int
                0x00000000       0x74 zephyr/libzephyr.a(ecc.c.obj)
 .text.uECC_compute_public_key
                0x00000000       0x7e zephyr/libzephyr.a(ecc.c.obj)
 .text          0x00000000        0x0 zephyr/libzephyr.a(aes_decrypt.c.obj)
 .data          0x00000000        0x0 zephyr/libzephyr.a(aes_decrypt.c.obj)
 .bss           0x00000000        0x0 zephyr/libzephyr.a(aes_decrypt.c.obj)
 .text.add_round_key
                0x00000000       0x8a zephyr/libzephyr.a(aes_decrypt.c.obj)
 .text.inv_shift_rows
                0x00000000       0x72 zephyr/libzephyr.a(aes_decrypt.c.obj)
 .text.mult_row_column
                0x00000000      0x24c zephyr/libzephyr.a(aes_decrypt.c.obj)
 .text.tc_aes128_set_decrypt_key
                0x00000000        0x4 zephyr/libzephyr.a(aes_decrypt.c.obj)
 .text.tc_aes_decrypt
                0x00000000       0xd8 zephyr/libzephyr.a(aes_decrypt.c.obj)
 .rodata.inv_sbox
                0x00000000      0x100 zephyr/libzephyr.a(aes_decrypt.c.obj)
 .debug_info    0x00000000      0x745 zephyr/libzephyr.a(aes_decrypt.c.obj)
 .debug_abbrev  0x00000000      0x1bc zephyr/libzephyr.a(aes_decrypt.c.obj)
 .debug_loc     0x00000000      0x1d4 zephyr/libzephyr.a(aes_decrypt.c.obj)
 .debug_aranges
                0x00000000       0x40 zephyr/libzephyr.a(aes_decrypt.c.obj)
 .debug_ranges  0x00000000       0x48 zephyr/libzephyr.a(aes_decrypt.c.obj)
 .debug_line    0x00000000      0x1e8 zephyr/libzephyr.a(aes_decrypt.c.obj)
 .debug_str     0x00000000      0x352 zephyr/libzephyr.a(aes_decrypt.c.obj)
 .comment       0x00000000       0x80 zephyr/libzephyr.a(aes_decrypt.c.obj)
 .debug_frame   0x00000000       0xa0 zephyr/libzephyr.a(aes_decrypt.c.obj)
 .text          0x00000000        0x0 zephyr/libzephyr.a(aes_encrypt.c.obj)
 .data          0x00000000        0x0 zephyr/libzephyr.a(aes_encrypt.c.obj)
 .bss           0x00000000        0x0 zephyr/libzephyr.a(aes_encrypt.c.obj)
 .text          0x00000000        0x0 zephyr/libzephyr.a(cmac_mode.c.obj)
 .data          0x00000000        0x0 zephyr/libzephyr.a(cmac_mode.c.obj)
 .bss           0x00000000        0x0 zephyr/libzephyr.a(cmac_mode.c.obj)
 .rodata.gf_wrap
                0x00000000        0x1 zephyr/libzephyr.a(cmac_mode.c.obj)
 .text          0x00000000        0x0 zephyr/libzephyr.a(system_nrf52810.c.obj)
 .data          0x00000000        0x0 zephyr/libzephyr.a(system_nrf52810.c.obj)
 .bss           0x00000000        0x0 zephyr/libzephyr.a(system_nrf52810.c.obj)
 .text.SystemCoreClockUpdate
                0x00000000       0x10 zephyr/libzephyr.a(system_nrf52810.c.obj)
 .text          0x00000000        0x0 zephyr/libzephyr.a(nrfx_glue.c.obj)
 .data          0x00000000        0x0 zephyr/libzephyr.a(nrfx_glue.c.obj)
 .bss           0x00000000        0x0 zephyr/libzephyr.a(nrfx_glue.c.obj)
 .text.nrfx_isr
                0x00000000        0x2 zephyr/libzephyr.a(nrfx_glue.c.obj)
 .debug_info    0x00000000      0x73b zephyr/libzephyr.a(nrfx_glue.c.obj)
 .debug_abbrev  0x00000000      0x191 zephyr/libzephyr.a(nrfx_glue.c.obj)
 .debug_loc     0x00000000       0x21 zephyr/libzephyr.a(nrfx_glue.c.obj)
 .debug_aranges
                0x00000000       0x20 zephyr/libzephyr.a(nrfx_glue.c.obj)
 .debug_ranges  0x00000000       0x10 zephyr/libzephyr.a(nrfx_glue.c.obj)
 .debug_line    0x00000000      0x3f1 zephyr/libzephyr.a(nrfx_glue.c.obj)
 .debug_str     0x00000000      0x67b zephyr/libzephyr.a(nrfx_glue.c.obj)
 .comment       0x00000000       0x80 zephyr/libzephyr.a(nrfx_glue.c.obj)
 .debug_frame   0x00000000       0x20 zephyr/libzephyr.a(nrfx_glue.c.obj)
 .text          0x00000000        0x0 zephyr/libzephyr.a(nrfx_pwm.c.obj)
 .data          0x00000000        0x0 zephyr/libzephyr.a(nrfx_pwm.c.obj)
 .bss           0x00000000        0x0 zephyr/libzephyr.a(nrfx_pwm.c.obj)
 .text.nrfx_pwm_uninit
                0x00000000       0x28 zephyr/libzephyr.a(nrfx_pwm.c.obj)
 .text.nrfx_pwm_complex_playback
                0x00000000       0x68 zephyr/libzephyr.a(nrfx_pwm.c.obj)
 .text.nrfx_pwm_0_irq_handler
                0x00000000       0x90 zephyr/libzephyr.a(nrfx_pwm.c.obj)
 .text          0x00000000        0x0 zephyr/libzephyr.a(addr_utils.c.obj)
 .data          0x00000000        0x0 zephyr/libzephyr.a(addr_utils.c.obj)
 .bss           0x00000000        0x0 zephyr/libzephyr.a(addr_utils.c.obj)
 .debug_info    0x00000000      0xa47 zephyr/libzephyr.a(addr_utils.c.obj)
 .debug_abbrev  0x00000000      0x1a9 zephyr/libzephyr.a(addr_utils.c.obj)
 .debug_aranges
                0x00000000       0x18 zephyr/libzephyr.a(addr_utils.c.obj)
 .debug_line    0x00000000      0x3e3 zephyr/libzephyr.a(addr_utils.c.obj)
 .debug_str     0x00000000      0x79c zephyr/libzephyr.a(addr_utils.c.obj)
 .comment       0x00000000       0x80 zephyr/libzephyr.a(addr_utils.c.obj)
 .text          0x00000000        0x0 zephyr/libzephyr.a(rand32_entropy_device.c.obj)
 .data          0x00000000        0x0 zephyr/libzephyr.a(rand32_entropy_device.c.obj)
 .bss           0x00000000        0x0 zephyr/libzephyr.a(rand32_entropy_device.c.obj)
 .text          0x00000000        0x0 zephyr/libzephyr.a(power.c.obj)
 .data          0x00000000        0x0 zephyr/libzephyr.a(power.c.obj)
 .bss           0x00000000        0x0 zephyr/libzephyr.a(power.c.obj)
 .text.sys_pm_dump_debug_info
                0x00000000        0x2 zephyr/libzephyr.a(power.c.obj)
 .text.sys_pm_notify_power_state_entry
                0x00000000        0x2 zephyr/libzephyr.a(power.c.obj)
 .text.sys_pm_notify_power_state_exit
                0x00000000        0x2 zephyr/libzephyr.a(power.c.obj)
 .text.sys_pm_force_power_state
                0x00000000        0xc zephyr/libzephyr.a(power.c.obj)
 .text._sys_suspend
                0x00000000       0x5c zephyr/libzephyr.a(power.c.obj)
 .text._sys_resume
                0x00000000       0x2c zephyr/libzephyr.a(power.c.obj)
 .bss.pm_state  0x00000000        0x1 zephyr/libzephyr.a(power.c.obj)
 .data.forced_pm_state
                0x00000000        0x1 zephyr/libzephyr.a(power.c.obj)
 .data.post_ops_done
                0x00000000        0x4 zephyr/libzephyr.a(power.c.obj)
 .debug_info    0x00000000      0xa23 zephyr/libzephyr.a(power.c.obj)
 .debug_abbrev  0x00000000      0x314 zephyr/libzephyr.a(power.c.obj)
 .debug_loc     0x00000000       0x35 zephyr/libzephyr.a(power.c.obj)
 .debug_aranges
                0x00000000       0x40 zephyr/libzephyr.a(power.c.obj)
 .debug_ranges  0x00000000       0x30 zephyr/libzephyr.a(power.c.obj)
 .debug_line    0x00000000      0x4e8 zephyr/libzephyr.a(power.c.obj)
 .debug_str     0x00000000      0x91a zephyr/libzephyr.a(power.c.obj)
 .comment       0x00000000       0x80 zephyr/libzephyr.a(power.c.obj)
 .debug_frame   0x00000000       0x8c zephyr/libzephyr.a(power.c.obj)
 .text          0x00000000        0x0 zephyr/libzephyr.a(policy_residency.c.obj)
 .data          0x00000000        0x0 zephyr/libzephyr.a(policy_residency.c.obj)
 .bss           0x00000000        0x0 zephyr/libzephyr.a(policy_residency.c.obj)
 .text.sys_pm_policy_next_state
                0x00000000        0x6 zephyr/libzephyr.a(policy_residency.c.obj)
 .debug_info    0x00000000      0x91d zephyr/libzephyr.a(policy_residency.c.obj)
 .debug_abbrev  0x00000000      0x219 zephyr/libzephyr.a(policy_residency.c.obj)
 .debug_loc     0x00000000       0x21 zephyr/libzephyr.a(policy_residency.c.obj)
 .debug_aranges
                0x00000000       0x20 zephyr/libzephyr.a(policy_residency.c.obj)
 .debug_ranges  0x00000000       0x10 zephyr/libzephyr.a(policy_residency.c.obj)
 .debug_line    0x00000000      0x440 zephyr/libzephyr.a(policy_residency.c.obj)
 .debug_str     0x00000000      0x7e8 zephyr/libzephyr.a(policy_residency.c.obj)
 .comment       0x00000000       0x80 zephyr/libzephyr.a(policy_residency.c.obj)
 .debug_frame   0x00000000       0x20 zephyr/libzephyr.a(policy_residency.c.obj)
 .text          0x00000000        0x0 zephyr/libzephyr.a(uart_console.c.obj)
 .data          0x00000000        0x0 zephyr/libzephyr.a(uart_console.c.obj)
 .bss           0x00000000        0x0 zephyr/libzephyr.a(uart_console.c.obj)
 .text          0x00000000        0x0 zephyr/libzephyr.a(nrf_power_clock.c.obj)
 .data          0x00000000        0x0 zephyr/libzephyr.a(nrf_power_clock.c.obj)
 .bss           0x00000000        0x0 zephyr/libzephyr.a(nrf_power_clock.c.obj)
 .text          0x00000000        0x0 zephyr/libzephyr.a(sys_clock_init.c.obj)
 .data          0x00000000        0x0 zephyr/libzephyr.a(sys_clock_init.c.obj)
 .bss           0x00000000        0x0 zephyr/libzephyr.a(sys_clock_init.c.obj)
 .text.z_clock_driver_init
                0x00000000        0x4 zephyr/libzephyr.a(sys_clock_init.c.obj)
 .text.z_clock_device_ctrl
                0x00000000        0x4 zephyr/libzephyr.a(sys_clock_init.c.obj)
 .text.z_clock_set_timeout
                0x00000000        0x2 zephyr/libzephyr.a(sys_clock_init.c.obj)
 .text.sys_clock_disable
                0x00000000        0x2 zephyr/libzephyr.a(sys_clock_init.c.obj)
 .text          0x00000000        0x0 zephyr/libzephyr.a(nrf_rtc_timer.c.obj)
 .data          0x00000000        0x0 zephyr/libzephyr.a(nrf_rtc_timer.c.obj)
 .bss           0x00000000        0x0 zephyr/libzephyr.a(nrf_rtc_timer.c.obj)
 .text          0x00000000        0x0 zephyr/libzephyr.a(nus.c.obj)
 .data          0x00000000        0x0 zephyr/libzephyr.a(nus.c.obj)
 .bss           0x00000000        0x0 zephyr/libzephyr.a(nus.c.obj)
 .text          0x00000000        0x0 zephyr/arch/arm/core/libarch__arm__core.a(exc_exit.S.obj)
 .data          0x00000000        0x0 zephyr/arch/arm/core/libarch__arm__core.a(exc_exit.S.obj)
 .bss           0x00000000        0x0 zephyr/arch/arm/core/libarch__arm__core.a(exc_exit.S.obj)
 .text          0x00000000        0x0 zephyr/arch/arm/core/libarch__arm__core.a(swap_helper.S.obj)
 .data          0x00000000        0x0 zephyr/arch/arm/core/libarch__arm__core.a(swap_helper.S.obj)
 .bss           0x00000000        0x0 zephyr/arch/arm/core/libarch__arm__core.a(swap_helper.S.obj)
 .text          0x00000000        0x0 zephyr/arch/arm/core/libarch__arm__core.a(cpu_idle.S.obj)
 .data          0x00000000        0x0 zephyr/arch/arm/core/libarch__arm__core.a(cpu_idle.S.obj)
 .bss           0x00000000        0x0 zephyr/arch/arm/core/libarch__arm__core.a(cpu_idle.S.obj)
 .text._NanoIdleValGet
                0x00000000        0xc zephyr/arch/arm/core/libarch__arm__core.a(cpu_idle.S.obj)
 .text._NanoIdleValClear
                0x00000000        0xc zephyr/arch/arm/core/libarch__arm__core.a(cpu_idle.S.obj)
 .text.k_cpu_atomic_idle
                0x00000000       0x14 zephyr/arch/arm/core/libarch__arm__core.a(cpu_idle.S.obj)
 .text          0x00000000        0x0 zephyr/arch/arm/core/libarch__arm__core.a(fault_s.S.obj)
 .data          0x00000000        0x0 zephyr/arch/arm/core/libarch__arm__core.a(fault_s.S.obj)
 .bss           0x00000000        0x0 zephyr/arch/arm/core/libarch__arm__core.a(fault_s.S.obj)
 .text          0x00000000        0x0 zephyr/arch/arm/core/libarch__arm__core.a(nmi_on_reset.S.obj)
 .data          0x00000000        0x0 zephyr/arch/arm/core/libarch__arm__core.a(nmi_on_reset.S.obj)
 .bss           0x00000000        0x0 zephyr/arch/arm/core/libarch__arm__core.a(nmi_on_reset.S.obj)
 .text          0x00000000        0x0 zephyr/arch/arm/core/libarch__arm__core.a(isr_wrapper.S.obj)
 .data          0x00000000        0x0 zephyr/arch/arm/core/libarch__arm__core.a(isr_wrapper.S.obj)
 .bss           0x00000000        0x0 zephyr/arch/arm/core/libarch__arm__core.a(isr_wrapper.S.obj)
 .text          0x00000000        0x0 zephyr/arch/arm/core/libarch__arm__core.a(swap.c.obj)
 .data          0x00000000        0x0 zephyr/arch/arm/core/libarch__arm__core.a(swap.c.obj)
 .bss           0x00000000        0x0 zephyr/arch/arm/core/libarch__arm__core.a(swap.c.obj)
 .text          0x00000000        0x0 zephyr/arch/arm/core/libarch__arm__core.a(irq_manage.c.obj)
 .data          0x00000000        0x0 zephyr/arch/arm/core/libarch__arm__core.a(irq_manage.c.obj)
 .bss           0x00000000        0x0 zephyr/arch/arm/core/libarch__arm__core.a(irq_manage.c.obj)
 .text          0x00000000        0x0 zephyr/arch/arm/core/libarch__arm__core.a(thread.c.obj)
 .data          0x00000000        0x0 zephyr/arch/arm/core/libarch__arm__core.a(thread.c.obj)
 .bss           0x00000000        0x0 zephyr/arch/arm/core/libarch__arm__core.a(thread.c.obj)
 .text          0x00000000        0x0 zephyr/arch/arm/core/libarch__arm__core.a(fatal.c.obj)
 .data          0x00000000        0x0 zephyr/arch/arm/core/libarch__arm__core.a(fatal.c.obj)
 .bss           0x00000000        0x0 zephyr/arch/arm/core/libarch__arm__core.a(fatal.c.obj)
 .text.z_arch_syscall_oops
                0x00000000       0x1c zephyr/arch/arm/core/libarch__arm__core.a(fatal.c.obj)
 .text          0x00000000        0x0 zephyr/arch/arm/core/libarch__arm__core.a(nmi.c.obj)
 .data          0x00000000        0x0 zephyr/arch/arm/core/libarch__arm__core.a(nmi.c.obj)
 .bss           0x00000000        0x0 zephyr/arch/arm/core/libarch__arm__core.a(nmi.c.obj)
 .text          0x00000000        0x0 zephyr/arch/arm/core/libarch__arm__core.a(prep_c.c.obj)
 .data          0x00000000        0x0 zephyr/arch/arm/core/libarch__arm__core.a(prep_c.c.obj)
 .bss           0x00000000        0x0 zephyr/arch/arm/core/libarch__arm__core.a(prep_c.c.obj)
 .text          0x00000000        0x0 zephyr/arch/arm/core/cortex_m/libarch__arm__core__cortex_m.a(vector_table.S.obj)
 .data          0x00000000        0x0 zephyr/arch/arm/core/cortex_m/libarch__arm__core__cortex_m.a(vector_table.S.obj)
 .bss           0x00000000        0x0 zephyr/arch/arm/core/cortex_m/libarch__arm__core__cortex_m.a(vector_table.S.obj)
 .text          0x00000000        0x0 zephyr/arch/arm/core/cortex_m/libarch__arm__core__cortex_m.a(reset.S.obj)
 .data          0x00000000        0x0 zephyr/arch/arm/core/cortex_m/libarch__arm__core__cortex_m.a(reset.S.obj)
 .bss           0x00000000        0x0 zephyr/arch/arm/core/cortex_m/libarch__arm__core__cortex_m.a(reset.S.obj)
 .text          0x00000000        0x0 zephyr/arch/arm/core/cortex_m/libarch__arm__core__cortex_m.a(fault.c.obj)
 .data          0x00000000        0x0 zephyr/arch/arm/core/cortex_m/libarch__arm__core__cortex_m.a(fault.c.obj)
 .bss           0x00000000        0x0 zephyr/arch/arm/core/cortex_m/libarch__arm__core__cortex_m.a(fault.c.obj)
 .text          0x00000000        0x0 zephyr/arch/arm/core/cortex_m/libarch__arm__core__cortex_m.a(scb.c.obj)
 .data          0x00000000        0x0 zephyr/arch/arm/core/cortex_m/libarch__arm__core__cortex_m.a(scb.c.obj)
 .bss           0x00000000        0x0 zephyr/arch/arm/core/cortex_m/libarch__arm__core__cortex_m.a(scb.c.obj)
 .text.sys_arch_reboot
                0x00000000       0x24 zephyr/arch/arm/core/cortex_m/libarch__arm__core__cortex_m.a(scb.c.obj)
 .debug_info    0x00000000      0x903 zephyr/arch/arm/core/cortex_m/libarch__arm__core__cortex_m.a(scb.c.obj)
 .debug_abbrev  0x00000000      0x1df zephyr/arch/arm/core/cortex_m/libarch__arm__core__cortex_m.a(scb.c.obj)
 .debug_aranges
                0x00000000       0x20 zephyr/arch/arm/core/cortex_m/libarch__arm__core__cortex_m.a(scb.c.obj)
 .debug_ranges  0x00000000       0x10 zephyr/arch/arm/core/cortex_m/libarch__arm__core__cortex_m.a(scb.c.obj)
 .debug_line    0x00000000      0x3b7 zephyr/arch/arm/core/cortex_m/libarch__arm__core__cortex_m.a(scb.c.obj)
 .debug_str     0x00000000      0x6ab zephyr/arch/arm/core/cortex_m/libarch__arm__core__cortex_m.a(scb.c.obj)
 .comment       0x00000000       0x80 zephyr/arch/arm/core/cortex_m/libarch__arm__core__cortex_m.a(scb.c.obj)
 .debug_frame   0x00000000       0x20 zephyr/arch/arm/core/cortex_m/libarch__arm__core__cortex_m.a(scb.c.obj)
 .text          0x00000000        0x0 zephyr/arch/arm/core/cortex_m/libarch__arm__core__cortex_m.a(irq_init.c.obj)
 .data          0x00000000        0x0 zephyr/arch/arm/core/cortex_m/libarch__arm__core__cortex_m.a(irq_init.c.obj)
 .bss           0x00000000        0x0 zephyr/arch/arm/core/cortex_m/libarch__arm__core__cortex_m.a(irq_init.c.obj)
 .text          0x00000000        0x0 zephyr/arch/arm/core/cortex_m/libarch__arm__core__cortex_m.a(thread_abort.c.obj)
 .data          0x00000000        0x0 zephyr/arch/arm/core/cortex_m/libarch__arm__core__cortex_m.a(thread_abort.c.obj)
 .bss           0x00000000        0x0 zephyr/arch/arm/core/cortex_m/libarch__arm__core__cortex_m.a(thread_abort.c.obj)
 .text          0x00000000        0x0 zephyr/arch/arm/core/cortex_m/mpu/libarch__arm__core__cortex_m__mpu.a(arm_core_mpu.c.obj)
 .data          0x00000000        0x0 zephyr/arch/arm/core/cortex_m/mpu/libarch__arm__core__cortex_m__mpu.a(arm_core_mpu.c.obj)
 .bss           0x00000000        0x0 zephyr/arch/arm/core/cortex_m/mpu/libarch__arm__core__cortex_m__mpu.a(arm_core_mpu.c.obj)
 .text          0x00000000        0x0 zephyr/arch/arm/core/cortex_m/mpu/libarch__arm__core__cortex_m__mpu.a(arm_mpu.c.obj)
 .data          0x00000000        0x0 zephyr/arch/arm/core/cortex_m/mpu/libarch__arm__core__cortex_m__mpu.a(arm_mpu.c.obj)
 .bss           0x00000000        0x0 zephyr/arch/arm/core/cortex_m/mpu/libarch__arm__core__cortex_m__mpu.a(arm_mpu.c.obj)
 .text          0x00000000        0x0 zephyr/lib/libc/minimal/liblib__libc__minimal.a(atoi.c.obj)
 .data          0x00000000        0x0 zephyr/lib/libc/minimal/liblib__libc__minimal.a(atoi.c.obj)
 .bss           0x00000000        0x0 zephyr/lib/libc/minimal/liblib__libc__minimal.a(atoi.c.obj)
 .text.atoi     0x00000000       0x46 zephyr/lib/libc/minimal/liblib__libc__minimal.a(atoi.c.obj)
 .debug_info    0x00000000       0xe9 zephyr/lib/libc/minimal/liblib__libc__minimal.a(atoi.c.obj)
 .debug_abbrev  0x00000000       0xe4 zephyr/lib/libc/minimal/liblib__libc__minimal.a(atoi.c.obj)
 .debug_loc     0x00000000       0x8f zephyr/lib/libc/minimal/liblib__libc__minimal.a(atoi.c.obj)
 .debug_aranges
                0x00000000       0x20 zephyr/lib/libc/minimal/liblib__libc__minimal.a(atoi.c.obj)
 .debug_ranges  0x00000000       0x10 zephyr/lib/libc/minimal/liblib__libc__minimal.a(atoi.c.obj)
 .debug_line    0x00000000       0xed zephyr/lib/libc/minimal/liblib__libc__minimal.a(atoi.c.obj)
 .debug_str     0x00000000      0x202 zephyr/lib/libc/minimal/liblib__libc__minimal.a(atoi.c.obj)
 .comment       0x00000000       0x80 zephyr/lib/libc/minimal/liblib__libc__minimal.a(atoi.c.obj)
 .debug_frame   0x00000000       0x28 zephyr/lib/libc/minimal/liblib__libc__minimal.a(atoi.c.obj)
 .text          0x00000000        0x0 zephyr/lib/libc/minimal/liblib__libc__minimal.a(strtol.c.obj)
 .data          0x00000000        0x0 zephyr/lib/libc/minimal/liblib__libc__minimal.a(strtol.c.obj)
 .bss           0x00000000        0x0 zephyr/lib/libc/minimal/liblib__libc__minimal.a(strtol.c.obj)
 .text.strtol   0x00000000       0xec zephyr/lib/libc/minimal/liblib__libc__minimal.a(strtol.c.obj)
 .debug_info    0x00000000      0x23c zephyr/lib/libc/minimal/liblib__libc__minimal.a(strtol.c.obj)
 .debug_abbrev  0x00000000      0x100 zephyr/lib/libc/minimal/liblib__libc__minimal.a(strtol.c.obj)
 .debug_loc     0x00000000      0x30e zephyr/lib/libc/minimal/liblib__libc__minimal.a(strtol.c.obj)
 .debug_aranges
                0x00000000       0x20 zephyr/lib/libc/minimal/liblib__libc__minimal.a(strtol.c.obj)
 .debug_ranges  0x00000000       0x10 zephyr/lib/libc/minimal/liblib__libc__minimal.a(strtol.c.obj)
 .debug_line    0x00000000      0x1b7 zephyr/lib/libc/minimal/liblib__libc__minimal.a(strtol.c.obj)
 .debug_str     0x00000000      0x2c3 zephyr/lib/libc/minimal/liblib__libc__minimal.a(strtol.c.obj)
 .comment       0x00000000       0x80 zephyr/lib/libc/minimal/liblib__libc__minimal.a(strtol.c.obj)
 .debug_frame   0x00000000       0x34 zephyr/lib/libc/minimal/liblib__libc__minimal.a(strtol.c.obj)
 .text          0x00000000        0x0 zephyr/lib/libc/minimal/liblib__libc__minimal.a(strtoul.c.obj)
 .data          0x00000000        0x0 zephyr/lib/libc/minimal/liblib__libc__minimal.a(strtoul.c.obj)
 .bss           0x00000000        0x0 zephyr/lib/libc/minimal/liblib__libc__minimal.a(strtoul.c.obj)
 .text.strtoul  0x00000000       0xf2 zephyr/lib/libc/minimal/liblib__libc__minimal.a(strtoul.c.obj)
 .debug_info    0x00000000      0x23c zephyr/lib/libc/minimal/liblib__libc__minimal.a(strtoul.c.obj)
 .debug_abbrev  0x00000000      0x100 zephyr/lib/libc/minimal/liblib__libc__minimal.a(strtoul.c.obj)
 .debug_loc     0x00000000      0x31b zephyr/lib/libc/minimal/liblib__libc__minimal.a(strtoul.c.obj)
 .debug_aranges
                0x00000000       0x20 zephyr/lib/libc/minimal/liblib__libc__minimal.a(strtoul.c.obj)
 .debug_ranges  0x00000000       0x10 zephyr/lib/libc/minimal/liblib__libc__minimal.a(strtoul.c.obj)
 .debug_line    0x00000000      0x1a4 zephyr/lib/libc/minimal/liblib__libc__minimal.a(strtoul.c.obj)
 .debug_str     0x00000000      0x2c5 zephyr/lib/libc/minimal/liblib__libc__minimal.a(strtoul.c.obj)
 .comment       0x00000000       0x80 zephyr/lib/libc/minimal/liblib__libc__minimal.a(strtoul.c.obj)
 .debug_frame   0x00000000       0x30 zephyr/lib/libc/minimal/liblib__libc__minimal.a(strtoul.c.obj)
 .text          0x00000000        0x0 zephyr/lib/libc/minimal/liblib__libc__minimal.a(malloc.c.obj)
 .data          0x00000000        0x0 zephyr/lib/libc/minimal/liblib__libc__minimal.a(malloc.c.obj)
 .bss           0x00000000        0x0 zephyr/lib/libc/minimal/liblib__libc__minimal.a(malloc.c.obj)
 .text.malloc   0x00000000        0xe zephyr/lib/libc/minimal/liblib__libc__minimal.a(malloc.c.obj)
 .text.free     0x00000000        0x4 zephyr/lib/libc/minimal/liblib__libc__minimal.a(malloc.c.obj)
 .text.calloc   0x00000000        0xe zephyr/lib/libc/minimal/liblib__libc__minimal.a(malloc.c.obj)
 .text.realloc  0x00000000       0x4c zephyr/lib/libc/minimal/liblib__libc__minimal.a(malloc.c.obj)
 .text.reallocarray
                0x00000000       0x1e zephyr/lib/libc/minimal/liblib__libc__minimal.a(malloc.c.obj)
 .debug_info    0x00000000      0xf7b zephyr/lib/libc/minimal/liblib__libc__minimal.a(malloc.c.obj)
 .debug_abbrev  0x00000000      0x328 zephyr/lib/libc/minimal/liblib__libc__minimal.a(malloc.c.obj)
 .debug_loc     0x00000000      0x34c zephyr/lib/libc/minimal/liblib__libc__minimal.a(malloc.c.obj)
 .debug_aranges
                0x00000000       0x40 zephyr/lib/libc/minimal/liblib__libc__minimal.a(malloc.c.obj)
 .debug_ranges  0x00000000       0x50 zephyr/lib/libc/minimal/liblib__libc__minimal.a(malloc.c.obj)
 .debug_line    0x00000000      0x5f0 zephyr/lib/libc/minimal/liblib__libc__minimal.a(malloc.c.obj)
 .debug_str     0x00000000      0xb0e zephyr/lib/libc/minimal/liblib__libc__minimal.a(malloc.c.obj)
 .comment       0x00000000       0x80 zephyr/lib/libc/minimal/liblib__libc__minimal.a(malloc.c.obj)
 .debug_frame   0x00000000       0x8c zephyr/lib/libc/minimal/liblib__libc__minimal.a(malloc.c.obj)
 .text          0x00000000        0x0 zephyr/lib/libc/minimal/liblib__libc__minimal.a(bsearch.c.obj)
 .data          0x00000000        0x0 zephyr/lib/libc/minimal/liblib__libc__minimal.a(bsearch.c.obj)
 .bss           0x00000000        0x0 zephyr/lib/libc/minimal/liblib__libc__minimal.a(bsearch.c.obj)
 .text.bsearch  0x00000000       0x3c zephyr/lib/libc/minimal/liblib__libc__minimal.a(bsearch.c.obj)
 .debug_info    0x00000000      0x132 zephyr/lib/libc/minimal/liblib__libc__minimal.a(bsearch.c.obj)
 .debug_abbrev  0x00000000       0xe1 zephyr/lib/libc/minimal/liblib__libc__minimal.a(bsearch.c.obj)
 .debug_loc     0x00000000       0xeb zephyr/lib/libc/minimal/liblib__libc__minimal.a(bsearch.c.obj)
 .debug_aranges
                0x00000000       0x20 zephyr/lib/libc/minimal/liblib__libc__minimal.a(bsearch.c.obj)
 .debug_ranges  0x00000000       0x10 zephyr/lib/libc/minimal/liblib__libc__minimal.a(bsearch.c.obj)
 .debug_line    0x00000000       0xfc zephyr/lib/libc/minimal/liblib__libc__minimal.a(bsearch.c.obj)
 .debug_str     0x00000000      0x228 zephyr/lib/libc/minimal/liblib__libc__minimal.a(bsearch.c.obj)
 .comment       0x00000000       0x80 zephyr/lib/libc/minimal/liblib__libc__minimal.a(bsearch.c.obj)
 .debug_frame   0x00000000       0x38 zephyr/lib/libc/minimal/liblib__libc__minimal.a(bsearch.c.obj)
 .text          0x00000000        0x0 zephyr/lib/libc/minimal/liblib__libc__minimal.a(exit.c.obj)
 .data          0x00000000        0x0 zephyr/lib/libc/minimal/liblib__libc__minimal.a(exit.c.obj)
 .bss           0x00000000        0x0 zephyr/lib/libc/minimal/liblib__libc__minimal.a(exit.c.obj)
 .text._exit    0x00000000       0x10 zephyr/lib/libc/minimal/liblib__libc__minimal.a(exit.c.obj)
 .rodata._exit.str1.1
                0x00000000        0x6 zephyr/lib/libc/minimal/liblib__libc__minimal.a(exit.c.obj)
 .debug_info    0x00000000      0x72d zephyr/lib/libc/minimal/liblib__libc__minimal.a(exit.c.obj)
 .debug_abbrev  0x00000000      0x1ac zephyr/lib/libc/minimal/liblib__libc__minimal.a(exit.c.obj)
 .debug_loc     0x00000000       0x21 zephyr/lib/libc/minimal/liblib__libc__minimal.a(exit.c.obj)
 .debug_aranges
                0x00000000       0x20 zephyr/lib/libc/minimal/liblib__libc__minimal.a(exit.c.obj)
 .debug_ranges  0x00000000       0x10 zephyr/lib/libc/minimal/liblib__libc__minimal.a(exit.c.obj)
 .debug_line    0x00000000      0x3a5 zephyr/lib/libc/minimal/liblib__libc__minimal.a(exit.c.obj)
 .debug_str     0x00000000      0x634 zephyr/lib/libc/minimal/liblib__libc__minimal.a(exit.c.obj)
 .comment       0x00000000       0x80 zephyr/lib/libc/minimal/liblib__libc__minimal.a(exit.c.obj)
 .debug_frame   0x00000000       0x28 zephyr/lib/libc/minimal/liblib__libc__minimal.a(exit.c.obj)
 .text          0x00000000        0x0 zephyr/lib/libc/minimal/liblib__libc__minimal.a(strncasecmp.c.obj)
 .data          0x00000000        0x0 zephyr/lib/libc/minimal/liblib__libc__minimal.a(strncasecmp.c.obj)
 .bss           0x00000000        0x0 zephyr/lib/libc/minimal/liblib__libc__minimal.a(strncasecmp.c.obj)
 .text.strncasecmp
                0x00000000       0x4c zephyr/lib/libc/minimal/liblib__libc__minimal.a(strncasecmp.c.obj)
 .debug_info    0x00000000      0x11e zephyr/lib/libc/minimal/liblib__libc__minimal.a(strncasecmp.c.obj)
 .debug_abbrev  0x00000000       0xe0 zephyr/lib/libc/minimal/liblib__libc__minimal.a(strncasecmp.c.obj)
 .debug_loc     0x00000000      0x11c zephyr/lib/libc/minimal/liblib__libc__minimal.a(strncasecmp.c.obj)
 .debug_aranges
                0x00000000       0x20 zephyr/lib/libc/minimal/liblib__libc__minimal.a(strncasecmp.c.obj)
 .debug_ranges  0x00000000       0x28 zephyr/lib/libc/minimal/liblib__libc__minimal.a(strncasecmp.c.obj)
 .debug_line    0x00000000      0x170 zephyr/lib/libc/minimal/liblib__libc__minimal.a(strncasecmp.c.obj)
 .debug_str     0x00000000      0x22b zephyr/lib/libc/minimal/liblib__libc__minimal.a(strncasecmp.c.obj)
 .comment       0x00000000       0x80 zephyr/lib/libc/minimal/liblib__libc__minimal.a(strncasecmp.c.obj)
 .debug_frame   0x00000000       0x2c zephyr/lib/libc/minimal/liblib__libc__minimal.a(strncasecmp.c.obj)
 .text          0x00000000        0x0 zephyr/lib/libc/minimal/liblib__libc__minimal.a(strstr.c.obj)
 .data          0x00000000        0x0 zephyr/lib/libc/minimal/liblib__libc__minimal.a(strstr.c.obj)
 .bss           0x00000000        0x0 zephyr/lib/libc/minimal/liblib__libc__minimal.a(strstr.c.obj)
 .text.strstr   0x00000000       0x3a zephyr/lib/libc/minimal/liblib__libc__minimal.a(strstr.c.obj)
 .debug_info    0x00000000       0xfb zephyr/lib/libc/minimal/liblib__libc__minimal.a(strstr.c.obj)
 .debug_abbrev  0x00000000       0xd4 zephyr/lib/libc/minimal/liblib__libc__minimal.a(strstr.c.obj)
 .debug_loc     0x00000000       0xd0 zephyr/lib/libc/minimal/liblib__libc__minimal.a(strstr.c.obj)
 .debug_aranges
                0x00000000       0x20 zephyr/lib/libc/minimal/liblib__libc__minimal.a(strstr.c.obj)
 .debug_ranges  0x00000000       0x10 zephyr/lib/libc/minimal/liblib__libc__minimal.a(strstr.c.obj)
 .debug_line    0x00000000      0x149 zephyr/lib/libc/minimal/liblib__libc__minimal.a(strstr.c.obj)
 .debug_str     0x00000000      0x211 zephyr/lib/libc/minimal/liblib__libc__minimal.a(strstr.c.obj)
 .comment       0x00000000       0x80 zephyr/lib/libc/minimal/liblib__libc__minimal.a(strstr.c.obj)
 .debug_frame   0x00000000       0x30 zephyr/lib/libc/minimal/liblib__libc__minimal.a(strstr.c.obj)
 .text          0x00000000        0x0 zephyr/lib/libc/minimal/liblib__libc__minimal.a(string.c.obj)
 .data          0x00000000        0x0 zephyr/lib/libc/minimal/liblib__libc__minimal.a(string.c.obj)
 .bss           0x00000000        0x0 zephyr/lib/libc/minimal/liblib__libc__minimal.a(string.c.obj)
 .text.strncpy  0x00000000       0x26 zephyr/lib/libc/minimal/liblib__libc__minimal.a(string.c.obj)
 .text.strchr   0x00000000       0x1c zephyr/lib/libc/minimal/liblib__libc__minimal.a(string.c.obj)
 .text.strrchr  0x00000000       0x1a zephyr/lib/libc/minimal/liblib__libc__minimal.a(string.c.obj)
 .text.strnlen  0x00000000       0x12 zephyr/lib/libc/minimal/liblib__libc__minimal.a(string.c.obj)
 .text.strncmp  0x00000000       0x1e zephyr/lib/libc/minimal/liblib__libc__minimal.a(string.c.obj)
 .text.strcat   0x00000000       0x16 zephyr/lib/libc/minimal/liblib__libc__minimal.a(string.c.obj)
 .text.strncat  0x00000000       0x2a zephyr/lib/libc/minimal/liblib__libc__minimal.a(string.c.obj)
 .text.memmove  0x00000000       0x2e zephyr/lib/libc/minimal/liblib__libc__minimal.a(string.c.obj)
 .text.memchr   0x00000000       0x20 zephyr/lib/libc/minimal/liblib__libc__minimal.a(string.c.obj)
 .text          0x00000000        0x0 zephyr/lib/libc/minimal/liblib__libc__minimal.a(strspn.c.obj)
 .data          0x00000000        0x0 zephyr/lib/libc/minimal/liblib__libc__minimal.a(strspn.c.obj)
 .bss           0x00000000        0x0 zephyr/lib/libc/minimal/liblib__libc__minimal.a(strspn.c.obj)
 .text.strspn   0x00000000       0x20 zephyr/lib/libc/minimal/liblib__libc__minimal.a(strspn.c.obj)
 .text.strcspn  0x00000000       0x20 zephyr/lib/libc/minimal/liblib__libc__minimal.a(strspn.c.obj)
 .debug_info    0x00000000      0x106 zephyr/lib/libc/minimal/liblib__libc__minimal.a(strspn.c.obj)
 .debug_abbrev  0x00000000       0xb8 zephyr/lib/libc/minimal/liblib__libc__minimal.a(strspn.c.obj)
 .debug_loc     0x00000000       0xce zephyr/lib/libc/minimal/liblib__libc__minimal.a(strspn.c.obj)
 .debug_aranges
                0x00000000       0x28 zephyr/lib/libc/minimal/liblib__libc__minimal.a(strspn.c.obj)
 .debug_ranges  0x00000000       0x18 zephyr/lib/libc/minimal/liblib__libc__minimal.a(strspn.c.obj)
 .debug_line    0x00000000      0x15e zephyr/lib/libc/minimal/liblib__libc__minimal.a(strspn.c.obj)
 .debug_str     0x00000000      0x21a zephyr/lib/libc/minimal/liblib__libc__minimal.a(strspn.c.obj)
 .comment       0x00000000       0x80 zephyr/lib/libc/minimal/liblib__libc__minimal.a(strspn.c.obj)
 .debug_frame   0x00000000       0x50 zephyr/lib/libc/minimal/liblib__libc__minimal.a(strspn.c.obj)
 .text          0x00000000        0x0 zephyr/lib/libc/minimal/liblib__libc__minimal.a(prf.c.obj)
 .data          0x00000000        0x0 zephyr/lib/libc/minimal/liblib__libc__minimal.a(prf.c.obj)
 .bss           0x00000000        0x0 zephyr/lib/libc/minimal/liblib__libc__minimal.a(prf.c.obj)
 .text._to_x    0x00000000       0x40 zephyr/lib/libc/minimal/liblib__libc__minimal.a(prf.c.obj)
 .text._rlrshift
                0x00000000       0x28 zephyr/lib/libc/minimal/liblib__libc__minimal.a(prf.c.obj)
 .text._ldiv5   0x00000000       0x62 zephyr/lib/libc/minimal/liblib__libc__minimal.a(prf.c.obj)
 .text._get_digit
                0x00000000       0x36 zephyr/lib/libc/minimal/liblib__libc__minimal.a(prf.c.obj)
 .text.z_prf    0x00000000      0x9ac zephyr/lib/libc/minimal/liblib__libc__minimal.a(prf.c.obj)
 .rodata.z_prf.str1.1
                0x00000000        0xa zephyr/lib/libc/minimal/liblib__libc__minimal.a(prf.c.obj)
 .debug_info    0x00000000      0xcdc zephyr/lib/libc/minimal/liblib__libc__minimal.a(prf.c.obj)
 .debug_abbrev  0x00000000      0x32f zephyr/lib/libc/minimal/liblib__libc__minimal.a(prf.c.obj)
 .debug_loc     0x00000000     0x1ee9 zephyr/lib/libc/minimal/liblib__libc__minimal.a(prf.c.obj)
 .debug_aranges
                0x00000000       0x40 zephyr/lib/libc/minimal/liblib__libc__minimal.a(prf.c.obj)
 .debug_ranges  0x00000000      0x150 zephyr/lib/libc/minimal/liblib__libc__minimal.a(prf.c.obj)
 .debug_line    0x00000000      0x4ed zephyr/lib/libc/minimal/liblib__libc__minimal.a(prf.c.obj)
 .debug_str     0x00000000      0x42d zephyr/lib/libc/minimal/liblib__libc__minimal.a(prf.c.obj)
 .comment       0x00000000       0x80 zephyr/lib/libc/minimal/liblib__libc__minimal.a(prf.c.obj)
 .debug_frame   0x00000000       0xbc zephyr/lib/libc/minimal/liblib__libc__minimal.a(prf.c.obj)
 .text          0x00000000        0x0 zephyr/lib/libc/minimal/liblib__libc__minimal.a(stdout_console.c.obj)
 .data          0x00000000        0x0 zephyr/lib/libc/minimal/liblib__libc__minimal.a(stdout_console.c.obj)
 .bss           0x00000000        0x0 zephyr/lib/libc/minimal/liblib__libc__minimal.a(stdout_console.c.obj)
 .text.z_impl_zephyr_fputc
                0x00000000       0x14 zephyr/lib/libc/minimal/liblib__libc__minimal.a(stdout_console.c.obj)
 .text.fputc    0x00000000        0x4 zephyr/lib/libc/minimal/liblib__libc__minimal.a(stdout_console.c.obj)
 .text.z_impl_zephyr_fwrite
                0x00000000       0x48 zephyr/lib/libc/minimal/liblib__libc__minimal.a(stdout_console.c.obj)
 .text.fputs    0x00000000       0x22 zephyr/lib/libc/minimal/liblib__libc__minimal.a(stdout_console.c.obj)
 .text.fwrite   0x00000000        0x4 zephyr/lib/libc/minimal/liblib__libc__minimal.a(stdout_console.c.obj)
 .text.puts     0x00000000       0x20 zephyr/lib/libc/minimal/liblib__libc__minimal.a(stdout_console.c.obj)
 .text          0x00000000        0x0 zephyr/lib/libc/minimal/liblib__libc__minimal.a(sprintf.c.obj)
 .data          0x00000000        0x0 zephyr/lib/libc/minimal/liblib__libc__minimal.a(sprintf.c.obj)
 .bss           0x00000000        0x0 zephyr/lib/libc/minimal/liblib__libc__minimal.a(sprintf.c.obj)
 .text.sprintf_out
                0x00000000       0x1a zephyr/lib/libc/minimal/liblib__libc__minimal.a(sprintf.c.obj)
 .text.snprintf
                0x00000000       0x30 zephyr/lib/libc/minimal/liblib__libc__minimal.a(sprintf.c.obj)
 .text.sprintf  0x00000000       0x30 zephyr/lib/libc/minimal/liblib__libc__minimal.a(sprintf.c.obj)
 .text.vsnprintf
                0x00000000       0x24 zephyr/lib/libc/minimal/liblib__libc__minimal.a(sprintf.c.obj)
 .text.vsprintf
                0x00000000       0x28 zephyr/lib/libc/minimal/liblib__libc__minimal.a(sprintf.c.obj)
 .debug_info    0x00000000      0x35a zephyr/lib/libc/minimal/liblib__libc__minimal.a(sprintf.c.obj)
 .debug_abbrev  0x00000000      0x163 zephyr/lib/libc/minimal/liblib__libc__minimal.a(sprintf.c.obj)
 .debug_loc     0x00000000      0x1e5 zephyr/lib/libc/minimal/liblib__libc__minimal.a(sprintf.c.obj)
 .debug_aranges
                0x00000000       0x40 zephyr/lib/libc/minimal/liblib__libc__minimal.a(sprintf.c.obj)
 .debug_ranges  0x00000000       0x30 zephyr/lib/libc/minimal/liblib__libc__minimal.a(sprintf.c.obj)
 .debug_line    0x00000000      0x16c zephyr/lib/libc/minimal/liblib__libc__minimal.a(sprintf.c.obj)
 .debug_str     0x00000000      0x26e zephyr/lib/libc/minimal/liblib__libc__minimal.a(sprintf.c.obj)
 .comment       0x00000000       0x80 zephyr/lib/libc/minimal/liblib__libc__minimal.a(sprintf.c.obj)
 .debug_frame   0x00000000       0xa4 zephyr/lib/libc/minimal/liblib__libc__minimal.a(sprintf.c.obj)
 .text          0x00000000        0x0 zephyr/lib/libc/minimal/liblib__libc__minimal.a(fprintf.c.obj)
 .data          0x00000000        0x0 zephyr/lib/libc/minimal/liblib__libc__minimal.a(fprintf.c.obj)
 .bss           0x00000000        0x0 zephyr/lib/libc/minimal/liblib__libc__minimal.a(fprintf.c.obj)
 .text.fprintf  0x00000000       0x24 zephyr/lib/libc/minimal/liblib__libc__minimal.a(fprintf.c.obj)
 .text.vfprintf
                0x00000000       0x10 zephyr/lib/libc/minimal/liblib__libc__minimal.a(fprintf.c.obj)
 .text.printf   0x00000000       0x24 zephyr/lib/libc/minimal/liblib__libc__minimal.a(fprintf.c.obj)
 .text.vprintf  0x00000000       0x10 zephyr/lib/libc/minimal/liblib__libc__minimal.a(fprintf.c.obj)
 .debug_info    0x00000000      0x223 zephyr/lib/libc/minimal/liblib__libc__minimal.a(fprintf.c.obj)
 .debug_abbrev  0x00000000      0x120 zephyr/lib/libc/minimal/liblib__libc__minimal.a(fprintf.c.obj)
 .debug_loc     0x00000000       0xd6 zephyr/lib/libc/minimal/liblib__libc__minimal.a(fprintf.c.obj)
 .debug_aranges
                0x00000000       0x38 zephyr/lib/libc/minimal/liblib__libc__minimal.a(fprintf.c.obj)
 .debug_ranges  0x00000000       0x28 zephyr/lib/libc/minimal/liblib__libc__minimal.a(fprintf.c.obj)
 .debug_line    0x00000000      0x184 zephyr/lib/libc/minimal/liblib__libc__minimal.a(fprintf.c.obj)
 .debug_str     0x00000000      0x24e zephyr/lib/libc/minimal/liblib__libc__minimal.a(fprintf.c.obj)
 .comment       0x00000000       0x80 zephyr/lib/libc/minimal/liblib__libc__minimal.a(fprintf.c.obj)
 .debug_frame   0x00000000       0x8c zephyr/lib/libc/minimal/liblib__libc__minimal.a(fprintf.c.obj)
 .text          0x00000000        0x0 zephyr/lib/libc/minimal/liblib__libc__minimal.a(gmtime.c.obj)
 .data          0x00000000        0x0 zephyr/lib/libc/minimal/liblib__libc__minimal.a(gmtime.c.obj)
 .bss           0x00000000        0x0 zephyr/lib/libc/minimal/liblib__libc__minimal.a(gmtime.c.obj)
 .text.gmtime_r
                0x00000000      0x1b8 zephyr/lib/libc/minimal/liblib__libc__minimal.a(gmtime.c.obj)
 .text.gmtime   0x00000000        0xc zephyr/lib/libc/minimal/liblib__libc__minimal.a(gmtime.c.obj)
 .bss.shared.3694
                0x00000000       0x24 zephyr/lib/libc/minimal/liblib__libc__minimal.a(gmtime.c.obj)
 .debug_info    0x00000000      0x2e8 zephyr/lib/libc/minimal/liblib__libc__minimal.a(gmtime.c.obj)
 .debug_abbrev  0x00000000      0x185 zephyr/lib/libc/minimal/liblib__libc__minimal.a(gmtime.c.obj)
 .debug_loc     0x00000000      0x313 zephyr/lib/libc/minimal/liblib__libc__minimal.a(gmtime.c.obj)
 .debug_aranges
                0x00000000       0x28 zephyr/lib/libc/minimal/liblib__libc__minimal.a(gmtime.c.obj)
 .debug_ranges  0x00000000       0x30 zephyr/lib/libc/minimal/liblib__libc__minimal.a(gmtime.c.obj)
 .debug_line    0x00000000      0x186 zephyr/lib/libc/minimal/liblib__libc__minimal.a(gmtime.c.obj)
 .debug_str     0x00000000      0x30f zephyr/lib/libc/minimal/liblib__libc__minimal.a(gmtime.c.obj)
 .comment       0x00000000       0x80 zephyr/lib/libc/minimal/liblib__libc__minimal.a(gmtime.c.obj)
 .debug_frame   0x00000000       0x48 zephyr/lib/libc/minimal/liblib__libc__minimal.a(gmtime.c.obj)
 .text          0x00000000        0x0 zephyr/subsys/bluetooth/common/libsubsys__bluetooth__common.a(dummy.c.obj)
 .data          0x00000000        0x0 zephyr/subsys/bluetooth/common/libsubsys__bluetooth__common.a(dummy.c.obj)
 .bss           0x00000000        0x0 zephyr/subsys/bluetooth/common/libsubsys__bluetooth__common.a(dummy.c.obj)
 .debug_info    0x00000000      0x6e2 zephyr/subsys/bluetooth/common/libsubsys__bluetooth__common.a(dummy.c.obj)
 .debug_abbrev  0x00000000      0x157 zephyr/subsys/bluetooth/common/libsubsys__bluetooth__common.a(dummy.c.obj)
 .debug_aranges
                0x00000000       0x18 zephyr/subsys/bluetooth/common/libsubsys__bluetooth__common.a(dummy.c.obj)
 .debug_line    0x00000000      0x339 zephyr/subsys/bluetooth/common/libsubsys__bluetooth__common.a(dummy.c.obj)
 .debug_str     0x00000000      0x61a zephyr/subsys/bluetooth/common/libsubsys__bluetooth__common.a(dummy.c.obj)
 .comment       0x00000000       0x80 zephyr/subsys/bluetooth/common/libsubsys__bluetooth__common.a(dummy.c.obj)
 .text          0x00000000        0x0 zephyr/subsys/bluetooth/common/libsubsys__bluetooth__common.a(log.c.obj)
 .data          0x00000000        0x0 zephyr/subsys/bluetooth/common/libsubsys__bluetooth__common.a(log.c.obj)
 .bss           0x00000000        0x0 zephyr/subsys/bluetooth/common/libsubsys__bluetooth__common.a(log.c.obj)
 .text.bt_hex_real
                0x00000000       0x48 zephyr/subsys/bluetooth/common/libsubsys__bluetooth__common.a(log.c.obj)
 .text.bt_addr_str_real
                0x00000000       0x34 zephyr/subsys/bluetooth/common/libsubsys__bluetooth__common.a(log.c.obj)
 .text.bt_addr_le_str_real
                0x00000000       0x7c zephyr/subsys/bluetooth/common/libsubsys__bluetooth__common.a(log.c.obj)
 .bss.str.10559
                0x00000000       0x81 zephyr/subsys/bluetooth/common/libsubsys__bluetooth__common.a(log.c.obj)
 .bss.str.10568
                0x00000000       0x12 zephyr/subsys/bluetooth/common/libsubsys__bluetooth__common.a(log.c.obj)
 .bss.str.10572
                0x00000000       0x1e zephyr/subsys/bluetooth/common/libsubsys__bluetooth__common.a(log.c.obj)
 .rodata.bt_addr_le_str_real.str1.1
                0x00000000       0x4c zephyr/subsys/bluetooth/common/libsubsys__bluetooth__common.a(log.c.obj)
 .rodata.bt_addr_str_real.str1.1
                0x00000000       0x1e zephyr/subsys/bluetooth/common/libsubsys__bluetooth__common.a(log.c.obj)
 .rodata.hex.10558
                0x00000000       0x11 zephyr/subsys/bluetooth/common/libsubsys__bluetooth__common.a(log.c.obj)
 .debug_info    0x00000000      0xc4e zephyr/subsys/bluetooth/common/libsubsys__bluetooth__common.a(log.c.obj)
 .debug_abbrev  0x00000000      0x2a9 zephyr/subsys/bluetooth/common/libsubsys__bluetooth__common.a(log.c.obj)
 .debug_loc     0x00000000      0x1ed zephyr/subsys/bluetooth/common/libsubsys__bluetooth__common.a(log.c.obj)
 .debug_aranges
                0x00000000       0x30 zephyr/subsys/bluetooth/common/libsubsys__bluetooth__common.a(log.c.obj)
 .debug_ranges  0x00000000       0x40 zephyr/subsys/bluetooth/common/libsubsys__bluetooth__common.a(log.c.obj)
 .debug_line    0x00000000      0x4c0 zephyr/subsys/bluetooth/common/libsubsys__bluetooth__common.a(log.c.obj)
 .debug_str     0x00000000      0x755 zephyr/subsys/bluetooth/common/libsubsys__bluetooth__common.a(log.c.obj)
 .comment       0x00000000       0x80 zephyr/subsys/bluetooth/common/libsubsys__bluetooth__common.a(log.c.obj)
 .debug_frame   0x00000000       0x70 zephyr/subsys/bluetooth/common/libsubsys__bluetooth__common.a(log.c.obj)
 .text          0x00000000        0x0 zephyr/subsys/bluetooth/common/libsubsys__bluetooth__common.a(rpa.c.obj)
 .data          0x00000000        0x0 zephyr/subsys/bluetooth/common/libsubsys__bluetooth__common.a(rpa.c.obj)
 .bss           0x00000000        0x0 zephyr/subsys/bluetooth/common/libsubsys__bluetooth__common.a(rpa.c.obj)
 .text          0x00000000        0x0 zephyr/subsys/bluetooth/host/libsubsys__bluetooth__host.a(hci_ecc.c.obj)
 .data          0x00000000        0x0 zephyr/subsys/bluetooth/host/libsubsys__bluetooth__host.a(hci_ecc.c.obj)
 .bss           0x00000000        0x0 zephyr/subsys/bluetooth/host/libsubsys__bluetooth__host.a(hci_ecc.c.obj)
 .text          0x00000000        0x0 zephyr/subsys/bluetooth/host/libsubsys__bluetooth__host.a(uuid.c.obj)
 .data          0x00000000        0x0 zephyr/subsys/bluetooth/host/libsubsys__bluetooth__host.a(uuid.c.obj)
 .bss           0x00000000        0x0 zephyr/subsys/bluetooth/host/libsubsys__bluetooth__host.a(uuid.c.obj)
 .text          0x00000000        0x0 zephyr/subsys/bluetooth/host/libsubsys__bluetooth__host.a(hci_core.c.obj)
 .data          0x00000000        0x0 zephyr/subsys/bluetooth/host/libsubsys__bluetooth__host.a(hci_core.c.obj)
 .bss           0x00000000        0x0 zephyr/subsys/bluetooth/host/libsubsys__bluetooth__host.a(hci_core.c.obj)
 .text.bt_addr_from_str
                0x00000000       0x66 zephyr/subsys/bluetooth/host/libsubsys__bluetooth__host.a(hci_core.c.obj)
 .text.bt_addr_le_from_str
                0x00000000       0xa4 zephyr/subsys/bluetooth/host/libsubsys__bluetooth__host.a(hci_core.c.obj)
 .text.bt_unpair
                0x00000000       0x74 zephyr/subsys/bluetooth/host/libsubsys__bluetooth__host.a(hci_core.c.obj)
 .text.bt_addr_le_create_nrpa
                0x00000000       0x1c zephyr/subsys/bluetooth/host/libsubsys__bluetooth__host.a(hci_core.c.obj)
 .text.bt_set_name
                0x00000000        0x6 zephyr/subsys/bluetooth/host/libsubsys__bluetooth__host.a(hci_core.c.obj)
 .text.bt_id_get
                0x00000000       0x20 zephyr/subsys/bluetooth/host/libsubsys__bluetooth__host.a(hci_core.c.obj)
 .text.bt_set_id_addr
                0x00000000       0x30 zephyr/subsys/bluetooth/host/libsubsys__bluetooth__host.a(hci_core.c.obj)
 .text.bt_id_reset
                0x00000000       0xa8 zephyr/subsys/bluetooth/host/libsubsys__bluetooth__host.a(hci_core.c.obj)
 .text.bt_id_delete
                0x00000000       0x80 zephyr/subsys/bluetooth/host/libsubsys__bluetooth__host.a(hci_core.c.obj)
 .text.bt_le_adv_update_data
                0x00000000       0x3c zephyr/subsys/bluetooth/host/libsubsys__bluetooth__host.a(hci_core.c.obj)
 .text.bt_le_set_chan_map
                0x00000000        0x6 zephyr/subsys/bluetooth/host/libsubsys__bluetooth__host.a(hci_core.c.obj)
 .text.bt_le_oob_get_local
                0x00000000       0x24 zephyr/subsys/bluetooth/host/libsubsys__bluetooth__host.a(hci_core.c.obj)
 .text.bt_le_oob_set_sc_data
                0x00000000        0x4 zephyr/subsys/bluetooth/host/libsubsys__bluetooth__host.a(hci_core.c.obj)
 .text.bt_le_oob_get_sc_data
                0x00000000        0x4 zephyr/subsys/bluetooth/host/libsubsys__bluetooth__host.a(hci_core.c.obj)
 .rodata.bt_addr_le_from_str.str1.1
                0x00000000       0x4c zephyr/subsys/bluetooth/host/libsubsys__bluetooth__host.a(hci_core.c.obj)
 .text          0x00000000        0x0 zephyr/subsys/bluetooth/host/libsubsys__bluetooth__host.a(conn.c.obj)
 .data          0x00000000        0x0 zephyr/subsys/bluetooth/host/libsubsys__bluetooth__host.a(conn.c.obj)
 .bss           0x00000000        0x0 zephyr/subsys/bluetooth/host/libsubsys__bluetooth__host.a(conn.c.obj)
 .text.bt_conn_le_start_encryption
                0x00000000       0x76 zephyr/subsys/bluetooth/host/libsubsys__bluetooth__host.a(conn.c.obj)
 .text.bt_conn_enc_key_size
                0x00000000        0xe zephyr/subsys/bluetooth/host/libsubsys__bluetooth__host.a(conn.c.obj)
 .text.bt_conn_security
                0x00000000       0x3c zephyr/subsys/bluetooth/host/libsubsys__bluetooth__host.a(conn.c.obj)
 .text.bt_conn_get_info
                0x00000000       0x40 zephyr/subsys/bluetooth/host/libsubsys__bluetooth__host.a(conn.c.obj)
 .text.bt_conn_disconnect_all
                0x00000000       0x58 zephyr/subsys/bluetooth/host/libsubsys__bluetooth__host.a(conn.c.obj)
 .text.bt_conn_create_slave_le
                0x00000000       0x94 zephyr/subsys/bluetooth/host/libsubsys__bluetooth__host.a(conn.c.obj)
 .text.bt_conn_le_param_update
                0x00000000       0x92 zephyr/subsys/bluetooth/host/libsubsys__bluetooth__host.a(conn.c.obj)
 .text.bt_conn_auth_passkey_entry
                0x00000000       0x20 zephyr/subsys/bluetooth/host/libsubsys__bluetooth__host.a(conn.c.obj)
 .text.bt_conn_auth_passkey_confirm
                0x00000000       0x18 zephyr/subsys/bluetooth/host/libsubsys__bluetooth__host.a(conn.c.obj)
 .text.bt_conn_auth_cancel
                0x00000000       0x18 zephyr/subsys/bluetooth/host/libsubsys__bluetooth__host.a(conn.c.obj)
 .text.bt_conn_lookup_id
                0x00000000       0x30 zephyr/subsys/bluetooth/host/libsubsys__bluetooth__host.a(conn.c.obj)
 .text          0x00000000        0x0 zephyr/subsys/bluetooth/host/libsubsys__bluetooth__host.a(l2cap.c.obj)
 .data          0x00000000        0x0 zephyr/subsys/bluetooth/host/libsubsys__bluetooth__host.a(l2cap.c.obj)
 .bss           0x00000000        0x0 zephyr/subsys/bluetooth/host/libsubsys__bluetooth__host.a(l2cap.c.obj)
 .text.bt_l2cap_chan_state_str
                0x00000000       0x18 zephyr/subsys/bluetooth/host/libsubsys__bluetooth__host.a(l2cap.c.obj)
 .text.bt_l2cap_chan_add
                0x00000000       0x1e zephyr/subsys/bluetooth/host/libsubsys__bluetooth__host.a(l2cap.c.obj)
 .rodata.CSWTCH.113
                0x00000000       0x14 zephyr/subsys/bluetooth/host/libsubsys__bluetooth__host.a(l2cap.c.obj)
 .rodata.bt_l2cap_chan_state_str.str1.1
                0x00000000        0x8 zephyr/subsys/bluetooth/host/libsubsys__bluetooth__host.a(l2cap.c.obj)
 .rodata.str1.1
                0x00000000       0x31 zephyr/subsys/bluetooth/host/libsubsys__bluetooth__host.a(l2cap.c.obj)
 .text          0x00000000        0x0 zephyr/subsys/bluetooth/host/libsubsys__bluetooth__host.a(att.c.obj)
 .data          0x00000000        0x0 zephyr/subsys/bluetooth/host/libsubsys__bluetooth__host.a(att.c.obj)
 .bss           0x00000000        0x0 zephyr/subsys/bluetooth/host/libsubsys__bluetooth__host.a(att.c.obj)
 .text.bt_att_get_mtu
                0x00000000        0xe zephyr/subsys/bluetooth/host/libsubsys__bluetooth__host.a(att.c.obj)
 .text.bt_att_req_cancel
                0x00000000       0x6c zephyr/subsys/bluetooth/host/libsubsys__bluetooth__host.a(att.c.obj)
 .text          0x00000000        0x0 zephyr/subsys/bluetooth/host/libsubsys__bluetooth__host.a(gatt.c.obj)
 .data          0x00000000        0x0 zephyr/subsys/bluetooth/host/libsubsys__bluetooth__host.a(gatt.c.obj)
 .bss           0x00000000        0x0 zephyr/subsys/bluetooth/host/libsubsys__bluetooth__host.a(gatt.c.obj)
 .text.find_next
                0x00000000        0x6 zephyr/subsys/bluetooth/host/libsubsys__bluetooth__host.a(gatt.c.obj)
 .text.get_service_handles
                0x00000000       0x44 zephyr/subsys/bluetooth/host/libsubsys__bluetooth__host.a(gatt.c.obj)
 .text.bt_gatt_attr_read
                0x00000000       0x2e zephyr/subsys/bluetooth/host/libsubsys__bluetooth__host.a(gatt.c.obj)
 .text.bt_gatt_attr_read_included
                0x00000000       0x6c zephyr/subsys/bluetooth/host/libsubsys__bluetooth__host.a(gatt.c.obj)
 .text.bt_gatt_attr_next
                0x00000000       0x24 zephyr/subsys/bluetooth/host/libsubsys__bluetooth__host.a(gatt.c.obj)
 .text.bt_gatt_attr_read_cep
                0x00000000       0x36 zephyr/subsys/bluetooth/host/libsubsys__bluetooth__host.a(gatt.c.obj)
 .text.bt_gatt_attr_read_cud
                0x00000000       0x3c zephyr/subsys/bluetooth/host/libsubsys__bluetooth__host.a(gatt.c.obj)
 .text.bt_gatt_attr_read_cpf
                0x00000000       0x2a zephyr/subsys/bluetooth/host/libsubsys__bluetooth__host.a(gatt.c.obj)
 .text.bt_gatt_indicate
                0x00000000       0x9c zephyr/subsys/bluetooth/host/libsubsys__bluetooth__host.a(gatt.c.obj)
 .text.bt_gatt_get_mtu
                0x00000000        0x4 zephyr/subsys/bluetooth/host/libsubsys__bluetooth__host.a(gatt.c.obj)
 .text          0x00000000        0x0 zephyr/subsys/bluetooth/host/libsubsys__bluetooth__host.a(smp.c.obj)
 .data          0x00000000        0x0 zephyr/subsys/bluetooth/host/libsubsys__bluetooth__host.a(smp.c.obj)
 .bss           0x00000000        0x0 zephyr/subsys/bluetooth/host/libsubsys__bluetooth__host.a(smp.c.obj)
 .text.bt_set_bondable
                0x00000000        0xc zephyr/subsys/bluetooth/host/libsubsys__bluetooth__host.a(smp.c.obj)
 .text.bt_set_oob_data_flag
                0x00000000        0xc zephyr/subsys/bluetooth/host/libsubsys__bluetooth__host.a(smp.c.obj)
 .text.bt_smp_sign_verify
                0x00000000        0x6 zephyr/subsys/bluetooth/host/libsubsys__bluetooth__host.a(smp.c.obj)
 .text.bt_smp_auth_passkey_entry
                0x00000000       0x88 zephyr/subsys/bluetooth/host/libsubsys__bluetooth__host.a(smp.c.obj)
 .text.bt_smp_auth_passkey_confirm
                0x00000000       0x66 zephyr/subsys/bluetooth/host/libsubsys__bluetooth__host.a(smp.c.obj)
 .text.bt_smp_le_oob_generate_sc_data
                0x00000000       0x44 zephyr/subsys/bluetooth/host/libsubsys__bluetooth__host.a(smp.c.obj)
 .text.bt_smp_le_oob_set_sc_data
                0x00000000       0xa6 zephyr/subsys/bluetooth/host/libsubsys__bluetooth__host.a(smp.c.obj)
 .text.bt_smp_le_oob_get_sc_data
                0x00000000       0x38 zephyr/subsys/bluetooth/host/libsubsys__bluetooth__host.a(smp.c.obj)
 .text.bt_smp_auth_cancel
                0x00000000       0x46 zephyr/subsys/bluetooth/host/libsubsys__bluetooth__host.a(smp.c.obj)
 .text.bt_smp_keys_check
                0x00000000       0x46 zephyr/subsys/bluetooth/host/libsubsys__bluetooth__host.a(smp.c.obj)
 .text.bt_smp_send_security_req
                0x00000000       0xd8 zephyr/subsys/bluetooth/host/libsubsys__bluetooth__host.a(smp.c.obj)
 .text          0x00000000        0x0 zephyr/subsys/bluetooth/host/libsubsys__bluetooth__host.a(keys.c.obj)
 .data          0x00000000        0x0 zephyr/subsys/bluetooth/host/libsubsys__bluetooth__host.a(keys.c.obj)
 .bss           0x00000000        0x0 zephyr/subsys/bluetooth/host/libsubsys__bluetooth__host.a(keys.c.obj)
 .text.bt_foreach_bond
                0x00000000       0x50 zephyr/subsys/bluetooth/host/libsubsys__bluetooth__host.a(keys.c.obj)
 .text.keys_clear_id
                0x00000000        0xe zephyr/subsys/bluetooth/host/libsubsys__bluetooth__host.a(keys.c.obj)
 .text.bt_keys_clear_all
                0x00000000       0x1c zephyr/subsys/bluetooth/host/libsubsys__bluetooth__host.a(keys.c.obj)
 .text          0x00000000        0x0 zephyr/subsys/bluetooth/controller/libsubsys__bluetooth__controller.a(mem.c.obj)
 .data          0x00000000        0x0 zephyr/subsys/bluetooth/controller/libsubsys__bluetooth__controller.a(mem.c.obj)
 .bss           0x00000000        0x0 zephyr/subsys/bluetooth/controller/libsubsys__bluetooth__controller.a(mem.c.obj)
 .text.mem_ut   0x00000000       0xaa zephyr/subsys/bluetooth/controller/libsubsys__bluetooth__controller.a(mem.c.obj)
 .text          0x00000000        0x0 zephyr/subsys/bluetooth/controller/libsubsys__bluetooth__controller.a(memq.c.obj)
 .data          0x00000000        0x0 zephyr/subsys/bluetooth/controller/libsubsys__bluetooth__controller.a(memq.c.obj)
 .bss           0x00000000        0x0 zephyr/subsys/bluetooth/controller/libsubsys__bluetooth__controller.a(memq.c.obj)
 .text.memq_deinit
                0x00000000       0x16 zephyr/subsys/bluetooth/controller/libsubsys__bluetooth__controller.a(memq.c.obj)
 .text          0x00000000        0x0 zephyr/subsys/bluetooth/controller/libsubsys__bluetooth__controller.a(mayfly.c.obj)
 .data          0x00000000        0x0 zephyr/subsys/bluetooth/controller/libsubsys__bluetooth__controller.a(mayfly.c.obj)
 .bss           0x00000000        0x0 zephyr/subsys/bluetooth/controller/libsubsys__bluetooth__controller.a(mayfly.c.obj)
 .text          0x00000000        0x0 zephyr/subsys/bluetooth/controller/libsubsys__bluetooth__controller.a(util.c.obj)
 .data          0x00000000        0x0 zephyr/subsys/bluetooth/controller/libsubsys__bluetooth__controller.a(util.c.obj)
 .bss           0x00000000        0x0 zephyr/subsys/bluetooth/controller/libsubsys__bluetooth__controller.a(util.c.obj)
 .text          0x00000000        0x0 zephyr/subsys/bluetooth/controller/libsubsys__bluetooth__controller.a(ticker.c.obj)
 .data          0x00000000        0x0 zephyr/subsys/bluetooth/controller/libsubsys__bluetooth__controller.a(ticker.c.obj)
 .bss           0x00000000        0x0 zephyr/subsys/bluetooth/controller/libsubsys__bluetooth__controller.a(ticker.c.obj)
 .text.ticker_is_initialized
                0x00000000       0x18 zephyr/subsys/bluetooth/controller/libsubsys__bluetooth__controller.a(ticker.c.obj)
 .text          0x00000000        0x0 zephyr/subsys/bluetooth/controller/libsubsys__bluetooth__controller.a(ll_addr.c.obj)
 .data          0x00000000        0x0 zephyr/subsys/bluetooth/controller/libsubsys__bluetooth__controller.a(ll_addr.c.obj)
 .bss           0x00000000        0x0 zephyr/subsys/bluetooth/controller/libsubsys__bluetooth__controller.a(ll_addr.c.obj)
 .text.bt_ctlr_set_public_addr
                0x00000000       0x10 zephyr/subsys/bluetooth/controller/libsubsys__bluetooth__controller.a(ll_addr.c.obj)
 .text          0x00000000        0x0 zephyr/subsys/bluetooth/controller/libsubsys__bluetooth__controller.a(ll_tx_pwr.c.obj)
 .data          0x00000000        0x0 zephyr/subsys/bluetooth/controller/libsubsys__bluetooth__controller.a(ll_tx_pwr.c.obj)
 .bss           0x00000000        0x0 zephyr/subsys/bluetooth/controller/libsubsys__bluetooth__controller.a(ll_tx_pwr.c.obj)
 .text          0x00000000        0x0 zephyr/subsys/bluetooth/controller/libsubsys__bluetooth__controller.a(hci_driver.c.obj)
 .data          0x00000000        0x0 zephyr/subsys/bluetooth/controller/libsubsys__bluetooth__controller.a(hci_driver.c.obj)
 .bss           0x00000000        0x0 zephyr/subsys/bluetooth/controller/libsubsys__bluetooth__controller.a(hci_driver.c.obj)
 .text          0x00000000        0x0 zephyr/subsys/bluetooth/controller/libsubsys__bluetooth__controller.a(hci.c.obj)
 .data          0x00000000        0x0 zephyr/subsys/bluetooth/controller/libsubsys__bluetooth__controller.a(hci.c.obj)
 .bss           0x00000000        0x0 zephyr/subsys/bluetooth/controller/libsubsys__bluetooth__controller.a(hci.c.obj)
 .text.hci_vendor_cmd_handle
                0x00000000        0x4 zephyr/subsys/bluetooth/controller/libsubsys__bluetooth__controller.a(hci.c.obj)
 .text          0x00000000        0x0 zephyr/subsys/bluetooth/controller/libsubsys__bluetooth__controller.a(crypto.c.obj)
 .data          0x00000000        0x0 zephyr/subsys/bluetooth/controller/libsubsys__bluetooth__controller.a(crypto.c.obj)
 .bss           0x00000000        0x0 zephyr/subsys/bluetooth/controller/libsubsys__bluetooth__controller.a(crypto.c.obj)
 .text.bt_encrypt_be
                0x00000000        0xa zephyr/subsys/bluetooth/controller/libsubsys__bluetooth__controller.a(crypto.c.obj)
 .text          0x00000000        0x0 zephyr/subsys/bluetooth/controller/libsubsys__bluetooth__controller.a(ctrl.c.obj)
 .data          0x00000000        0x0 zephyr/subsys/bluetooth/controller/libsubsys__bluetooth__controller.a(ctrl.c.obj)
 .bss           0x00000000        0x0 zephyr/subsys/bluetooth/controller/libsubsys__bluetooth__controller.a(ctrl.c.obj)
 .text.event_stop
                0x00000000       0x20 zephyr/subsys/bluetooth/controller/libsubsys__bluetooth__controller.a(ctrl.c.obj)
 .text.event_scan_prepare
                0x00000000       0x38 zephyr/subsys/bluetooth/controller/libsubsys__bluetooth__controller.a(ctrl.c.obj)
 .text.event_scan
                0x00000000      0x170 zephyr/subsys/bluetooth/controller/libsubsys__bluetooth__controller.a(ctrl.c.obj)
 .text.radio_hf_clock_get
                0x00000000        0xc zephyr/subsys/bluetooth/controller/libsubsys__bluetooth__controller.a(ctrl.c.obj)
 .text.ll_radio_state_abort
                0x00000000        0x6 zephyr/subsys/bluetooth/controller/libsubsys__bluetooth__controller.a(ctrl.c.obj)
 .text.ll_radio_state_is_idle
                0x00000000        0x4 zephyr/subsys/bluetooth/controller/libsubsys__bluetooth__controller.a(ctrl.c.obj)
 .text.radio_ticks_active_to_start_set
                0x00000000        0xc zephyr/subsys/bluetooth/controller/libsubsys__bluetooth__controller.a(ctrl.c.obj)
 .text.radio_connect_enable
                0x00000000      0x374 zephyr/subsys/bluetooth/controller/libsubsys__bluetooth__controller.a(ctrl.c.obj)
 .text.ll_chm_update
                0x00000000       0x84 zephyr/subsys/bluetooth/controller/libsubsys__bluetooth__controller.a(ctrl.c.obj)
 .text.radio_rx_fc_get
                0x00000000       0x28 zephyr/subsys/bluetooth/controller/libsubsys__bluetooth__controller.a(ctrl.c.obj)
 .text.ll_enc_req_send
                0x00000000       0xce zephyr/subsys/bluetooth/controller/libsubsys__bluetooth__controller.a(ctrl.c.obj)
 .text.ll_adv_scan_state_cb
                0x00000000        0x2 zephyr/subsys/bluetooth/controller/libsubsys__bluetooth__controller.a(ctrl.c.obj)
 .text.radio_scan_enable
                0x00000000      0x170 zephyr/subsys/bluetooth/controller/libsubsys__bluetooth__controller.a(ctrl.c.obj)
 .text.radio_scan_disable.part.39
                0x00000000       0x38 zephyr/subsys/bluetooth/controller/libsubsys__bluetooth__controller.a(ctrl.c.obj)
 .text.radio_scan_disable
                0x00000000       0x18 zephyr/subsys/bluetooth/controller/libsubsys__bluetooth__controller.a(ctrl.c.obj)
 .text.ll_connect_disable
                0x00000000       0x48 zephyr/subsys/bluetooth/controller/libsubsys__bluetooth__controller.a(ctrl.c.obj)
 .text          0x00000000        0x0 zephyr/subsys/bluetooth/controller/libsubsys__bluetooth__controller.a(ll.c.obj)
 .data          0x00000000        0x0 zephyr/subsys/bluetooth/controller/libsubsys__bluetooth__controller.a(ll.c.obj)
 .bss           0x00000000        0x0 zephyr/subsys/bluetooth/controller/libsubsys__bluetooth__controller.a(ll.c.obj)
 .text.ll_timeslice_ticker_id_get
                0x00000000        0xa zephyr/subsys/bluetooth/controller/libsubsys__bluetooth__controller.a(ll.c.obj)
 .text          0x00000000        0x0 zephyr/subsys/bluetooth/controller/libsubsys__bluetooth__controller.a(ll_adv.c.obj)
 .data          0x00000000        0x0 zephyr/subsys/bluetooth/controller/libsubsys__bluetooth__controller.a(ll_adv.c.obj)
 .bss           0x00000000        0x0 zephyr/subsys/bluetooth/controller/libsubsys__bluetooth__controller.a(ll_adv.c.obj)
 .text          0x00000000        0x0 zephyr/subsys/bluetooth/controller/libsubsys__bluetooth__controller.a(ll_filter.c.obj)
 .data          0x00000000        0x0 zephyr/subsys/bluetooth/controller/libsubsys__bluetooth__controller.a(ll_filter.c.obj)
 .bss           0x00000000        0x0 zephyr/subsys/bluetooth/controller/libsubsys__bluetooth__controller.a(ll_filter.c.obj)
 .text.ll_filters_scan_update
                0x00000000       0x44 zephyr/subsys/bluetooth/controller/libsubsys__bluetooth__controller.a(ll_filter.c.obj)
 .text          0x00000000        0x0 zephyr/subsys/bluetooth/controller/libsubsys__bluetooth__controller.a(ll_adv_aux.c.obj)
 .data          0x00000000        0x0 zephyr/subsys/bluetooth/controller/libsubsys__bluetooth__controller.a(ll_adv_aux.c.obj)
 .bss           0x00000000        0x0 zephyr/subsys/bluetooth/controller/libsubsys__bluetooth__controller.a(ll_adv_aux.c.obj)
 .text.ll_adv_aux_random_addr_set
                0x00000000        0x4 zephyr/subsys/bluetooth/controller/libsubsys__bluetooth__controller.a(ll_adv_aux.c.obj)
 .text.ll_adv_aux_random_addr_get
                0x00000000        0x4 zephyr/subsys/bluetooth/controller/libsubsys__bluetooth__controller.a(ll_adv_aux.c.obj)
 .text.ll_adv_aux_ad_data_set
                0x00000000        0xa zephyr/subsys/bluetooth/controller/libsubsys__bluetooth__controller.a(ll_adv_aux.c.obj)
 .text.ll_adv_aux_sr_data_set
                0x00000000        0x4 zephyr/subsys/bluetooth/controller/libsubsys__bluetooth__controller.a(ll_adv_aux.c.obj)
 .text.ll_adv_aux_max_data_length_get
                0x00000000        0x4 zephyr/subsys/bluetooth/controller/libsubsys__bluetooth__controller.a(ll_adv_aux.c.obj)
 .text.ll_adv_aux_set_count_get
                0x00000000        0x4 zephyr/subsys/bluetooth/controller/libsubsys__bluetooth__controller.a(ll_adv_aux.c.obj)
 .text.ll_adv_aux_set_remove
                0x00000000        0x4 zephyr/subsys/bluetooth/controller/libsubsys__bluetooth__controller.a(ll_adv_aux.c.obj)
 .text.ll_adv_aux_set_clear
                0x00000000        0x4 zephyr/subsys/bluetooth/controller/libsubsys__bluetooth__controller.a(ll_adv_aux.c.obj)
 .debug_info    0x00000000      0xc55 zephyr/subsys/bluetooth/controller/libsubsys__bluetooth__controller.a(ll_adv_aux.c.obj)
 .debug_abbrev  0x00000000      0x279 zephyr/subsys/bluetooth/controller/libsubsys__bluetooth__controller.a(ll_adv_aux.c.obj)
 .debug_loc     0x00000000      0x108 zephyr/subsys/bluetooth/controller/libsubsys__bluetooth__controller.a(ll_adv_aux.c.obj)
 .debug_aranges
                0x00000000       0x50 zephyr/subsys/bluetooth/controller/libsubsys__bluetooth__controller.a(ll_adv_aux.c.obj)
 .debug_ranges  0x00000000       0x40 zephyr/subsys/bluetooth/controller/libsubsys__bluetooth__controller.a(ll_adv_aux.c.obj)
 .debug_line    0x00000000      0x419 zephyr/subsys/bluetooth/controller/libsubsys__bluetooth__controller.a(ll_adv_aux.c.obj)
 .debug_str     0x00000000      0x8d2 zephyr/subsys/bluetooth/controller/libsubsys__bluetooth__controller.a(ll_adv_aux.c.obj)
 .comment       0x00000000       0x80 zephyr/subsys/bluetooth/controller/libsubsys__bluetooth__controller.a(ll_adv_aux.c.obj)
 .debug_frame   0x00000000       0x98 zephyr/subsys/bluetooth/controller/libsubsys__bluetooth__controller.a(ll_adv_aux.c.obj)
 .text          0x00000000        0x0 zephyr/subsys/bluetooth/controller/libsubsys__bluetooth__controller.a(cntr.c.obj)
 .data          0x00000000        0x0 zephyr/subsys/bluetooth/controller/libsubsys__bluetooth__controller.a(cntr.c.obj)
 .bss           0x00000000        0x0 zephyr/subsys/bluetooth/controller/libsubsys__bluetooth__controller.a(cntr.c.obj)
 .text          0x00000000        0x0 zephyr/subsys/bluetooth/controller/libsubsys__bluetooth__controller.a(ecb.c.obj)
 .data          0x00000000        0x0 zephyr/subsys/bluetooth/controller/libsubsys__bluetooth__controller.a(ecb.c.obj)
 .bss           0x00000000        0x0 zephyr/subsys/bluetooth/controller/libsubsys__bluetooth__controller.a(ecb.c.obj)
 .text.ecb_cb   0x00000000       0x16 zephyr/subsys/bluetooth/controller/libsubsys__bluetooth__controller.a(ecb.c.obj)
 .text.ecb_encrypt_be
                0x00000000       0x32 zephyr/subsys/bluetooth/controller/libsubsys__bluetooth__controller.a(ecb.c.obj)
 .text.ecb_encrypt_nonblocking
                0x00000000       0x50 zephyr/subsys/bluetooth/controller/libsubsys__bluetooth__controller.a(ecb.c.obj)
 .text.isr_ecb  0x00000000       0x60 zephyr/subsys/bluetooth/controller/libsubsys__bluetooth__controller.a(ecb.c.obj)
 .text.ecb_ut   0x00000000       0x80 zephyr/subsys/bluetooth/controller/libsubsys__bluetooth__controller.a(ecb.c.obj)
 .rodata        0x00000000       0x10 zephyr/subsys/bluetooth/controller/libsubsys__bluetooth__controller.a(ecb.c.obj)
 .text          0x00000000        0x0 zephyr/subsys/bluetooth/controller/libsubsys__bluetooth__controller.a(radio.c.obj)
 .data          0x00000000        0x0 zephyr/subsys/bluetooth/controller/libsubsys__bluetooth__controller.a(radio.c.obj)
 .bss           0x00000000        0x0 zephyr/subsys/bluetooth/controller/libsubsys__bluetooth__controller.a(radio.c.obj)
 .text.radio_tx_power_max_set
                0x00000000       0x10 zephyr/subsys/bluetooth/controller/libsubsys__bluetooth__controller.a(radio.c.obj)
 .text.radio_has_disabled
                0x00000000       0x14 zephyr/subsys/bluetooth/controller/libsubsys__bluetooth__controller.a(radio.c.obj)
 .text.radio_bc_status_reset
                0x00000000       0x10 zephyr/subsys/bluetooth/controller/libsubsys__bluetooth__controller.a(radio.c.obj)
 .text.radio_bc_has_match
                0x00000000       0x14 zephyr/subsys/bluetooth/controller/libsubsys__bluetooth__controller.a(radio.c.obj)
 .text.radio_tmr_start_tick
                0x00000000       0x4c zephyr/subsys/bluetooth/controller/libsubsys__bluetooth__controller.a(radio.c.obj)
 .text.radio_tmr_start_us
                0x00000000       0x10 zephyr/subsys/bluetooth/controller/libsubsys__bluetooth__controller.a(radio.c.obj)
 .text.radio_tmr_start_now
                0x00000000       0x34 zephyr/subsys/bluetooth/controller/libsubsys__bluetooth__controller.a(radio.c.obj)
 .text.radio_tmr_start_get
                0x00000000        0xc zephyr/subsys/bluetooth/controller/libsubsys__bluetooth__controller.a(radio.c.obj)
 .text.radio_tmr_sample
                0x00000000        0xc zephyr/subsys/bluetooth/controller/libsubsys__bluetooth__controller.a(radio.c.obj)
 .text.radio_tmr_sample_get
                0x00000000        0xc zephyr/subsys/bluetooth/controller/libsubsys__bluetooth__controller.a(radio.c.obj)
 .rodata.z_bt_ctlr_used_nrf_ppi_channels
                0x00000000        0x4 zephyr/subsys/bluetooth/controller/libsubsys__bluetooth__controller.a(radio.c.obj)
 .rodata.z_bt_ctlr_used_nrf_ppi_groups
                0x00000000        0x4 zephyr/subsys/bluetooth/controller/libsubsys__bluetooth__controller.a(radio.c.obj)
 .text          0x00000000        0x0 zephyr/subsys/bluetooth/controller/libsubsys__bluetooth__controller.a(mayfly.c.obj)
 .data          0x00000000        0x0 zephyr/subsys/bluetooth/controller/libsubsys__bluetooth__controller.a(mayfly.c.obj)
 .bss           0x00000000        0x0 zephyr/subsys/bluetooth/controller/libsubsys__bluetooth__controller.a(mayfly.c.obj)
 .text          0x00000000        0x0 zephyr/subsys/bluetooth/controller/libsubsys__bluetooth__controller.a(ticker.c.obj)
 .data          0x00000000        0x0 zephyr/subsys/bluetooth/controller/libsubsys__bluetooth__controller.a(ticker.c.obj)
 .bss           0x00000000        0x0 zephyr/subsys/bluetooth/controller/libsubsys__bluetooth__controller.a(ticker.c.obj)
 .text          0x00000000        0x0 zephyr/subsys/net/libsubsys__net.a(buf.c.obj)
 .data          0x00000000        0x0 zephyr/subsys/net/libsubsys__net.a(buf.c.obj)
 .bss           0x00000000        0x0 zephyr/subsys/net/libsubsys__net.a(buf.c.obj)
 .text.generic_data_ref
                0x00000000        0xe zephyr/subsys/net/libsubsys__net.a(buf.c.obj)
 .text.mem_pool_data_alloc
                0x00000000       0x40 zephyr/subsys/net/libsubsys__net.a(buf.c.obj)
 .text.heap_data_unref
                0x00000000       0x16 zephyr/subsys/net/libsubsys__net.a(buf.c.obj)
 .text.heap_data_alloc
                0x00000000       0x14 zephyr/subsys/net/libsubsys__net.a(buf.c.obj)
 .text.mem_pool_data_unref
                0x00000000       0x28 zephyr/subsys/net/libsubsys__net.a(buf.c.obj)
 .text.net_buf_reset
                0x00000000        0xa zephyr/subsys/net/libsubsys__net.a(buf.c.obj)
 .text.net_buf_alloc_with_data
                0x00000000       0x20 zephyr/subsys/net/libsubsys__net.a(buf.c.obj)
 .text.net_buf_slist_put
                0x00000000       0x3a zephyr/subsys/net/libsubsys__net.a(buf.c.obj)
 .text.net_buf_slist_get
                0x00000000       0x72 zephyr/subsys/net/libsubsys__net.a(buf.c.obj)
 .text.net_buf_frag_last
                0x00000000        0xa zephyr/subsys/net/libsubsys__net.a(buf.c.obj)
 .text.net_buf_frag_insert
                0x00000000       0x16 zephyr/subsys/net/libsubsys__net.a(buf.c.obj)
 .text.net_buf_frag_add
                0x00000000       0x20 zephyr/subsys/net/libsubsys__net.a(buf.c.obj)
 .text.net_buf_frag_del
                0x00000000       0x18 zephyr/subsys/net/libsubsys__net.a(buf.c.obj)
 .text.net_buf_linearize
                0x00000000       0x52 zephyr/subsys/net/libsubsys__net.a(buf.c.obj)
 .text.net_buf_clone
                0x00000000       0xcc zephyr/subsys/net/libsubsys__net.a(buf.c.obj)
 .text.net_buf_simple_add_le16
                0x00000000       0x1e zephyr/subsys/net/libsubsys__net.a(buf.c.obj)
 .text.net_buf_simple_add_be16
                0x00000000       0x22 zephyr/subsys/net/libsubsys__net.a(buf.c.obj)
 .text.net_buf_simple_add_le32
                0x00000000       0x1e zephyr/subsys/net/libsubsys__net.a(buf.c.obj)
 .text.net_buf_simple_add_be32
                0x00000000       0x1e zephyr/subsys/net/libsubsys__net.a(buf.c.obj)
 .text.net_buf_simple_push_le16
                0x00000000       0x22 zephyr/subsys/net/libsubsys__net.a(buf.c.obj)
 .text.net_buf_simple_push_be16
                0x00000000       0x28 zephyr/subsys/net/libsubsys__net.a(buf.c.obj)
 .text.net_buf_simple_push_u8
                0x00000000       0x12 zephyr/subsys/net/libsubsys__net.a(buf.c.obj)
 .text.net_buf_simple_pull_u8
                0x00000000       0x10 zephyr/subsys/net/libsubsys__net.a(buf.c.obj)
 .text.net_buf_simple_pull_be16
                0x00000000       0x16 zephyr/subsys/net/libsubsys__net.a(buf.c.obj)
 .text.net_buf_simple_pull_le32
                0x00000000       0x10 zephyr/subsys/net/libsubsys__net.a(buf.c.obj)
 .text.net_buf_simple_pull_be32
                0x00000000       0x12 zephyr/subsys/net/libsubsys__net.a(buf.c.obj)
 .text.net_buf_append_bytes
                0x00000000       0x5a zephyr/subsys/net/libsubsys__net.a(buf.c.obj)
 .rodata.net_buf_heap_alloc
                0x00000000        0x8 zephyr/subsys/net/libsubsys__net.a(buf.c.obj)
 .rodata.net_buf_heap_cb
                0x00000000        0xc zephyr/subsys/net/libsubsys__net.a(buf.c.obj)
 .rodata.net_buf_var_cb
                0x00000000        0xc zephyr/subsys/net/libsubsys__net.a(buf.c.obj)
 .text          0x00000000        0x0 zephyr/drivers/gpio/libdrivers__gpio.a(gpio_nrfx.c.obj)
 .data          0x00000000        0x0 zephyr/drivers/gpio/libdrivers__gpio.a(gpio_nrfx.c.obj)
 .bss           0x00000000        0x0 zephyr/drivers/gpio/libdrivers__gpio.a(gpio_nrfx.c.obj)
 .text          0x00000000        0x0 zephyr/drivers/pwm/libdrivers__pwm.a(pwm_nrfx.c.obj)
 .data          0x00000000        0x0 zephyr/drivers/pwm/libdrivers__pwm.a(pwm_nrfx.c.obj)
 .bss           0x00000000        0x0 zephyr/drivers/pwm/libdrivers__pwm.a(pwm_nrfx.c.obj)
 .text          0x00000000        0x0 zephyr/drivers/serial/libdrivers__serial.a(uart_nrfx_uarte.c.obj)
 .data          0x00000000        0x0 zephyr/drivers/serial/libdrivers__serial.a(uart_nrfx_uarte.c.obj)
 .bss           0x00000000        0x0 zephyr/drivers/serial/libdrivers__serial.a(uart_nrfx_uarte.c.obj)
 .text          0x00000000        0x0 zephyr/drivers/entropy/libdrivers__entropy.a(entropy_nrf5.c.obj)
 .data          0x00000000        0x0 zephyr/drivers/entropy/libdrivers__entropy.a(entropy_nrf5.c.obj)
 .bss           0x00000000        0x0 zephyr/drivers/entropy/libdrivers__entropy.a(entropy_nrf5.c.obj)
 .text          0x00000000        0x0 zephyr/modules/nrf/lib/dk_buttons_and_leds/lib..__nrf__lib__dk_buttons_and_leds.a(dk_buttons_and_leds.c.obj)
 .data          0x00000000        0x0 zephyr/modules/nrf/lib/dk_buttons_and_leds/lib..__nrf__lib__dk_buttons_and_leds.a(dk_buttons_and_leds.c.obj)
 .bss           0x00000000        0x0 zephyr/modules/nrf/lib/dk_buttons_and_leds/lib..__nrf__lib__dk_buttons_and_leds.a(dk_buttons_and_leds.c.obj)
 .text.dk_set_leds_state.part.0
                0x00000000       0x50 zephyr/modules/nrf/lib/dk_buttons_and_leds/lib..__nrf__lib__dk_buttons_and_leds.a(dk_buttons_and_leds.c.obj)
 .text.dk_leds_init
                0x00000000       0x50 zephyr/modules/nrf/lib/dk_buttons_and_leds/lib..__nrf__lib__dk_buttons_and_leds.a(dk_buttons_and_leds.c.obj)
 .text.dk_get_buttons
                0x00000000       0x14 zephyr/modules/nrf/lib/dk_buttons_and_leds/lib..__nrf__lib__dk_buttons_and_leds.a(dk_buttons_and_leds.c.obj)
 .text.dk_set_leds_state
                0x00000000       0x14 zephyr/modules/nrf/lib/dk_buttons_and_leds/lib..__nrf__lib__dk_buttons_and_leds.a(dk_buttons_and_leds.c.obj)
 .text.dk_set_leds
                0x00000000        0x6 zephyr/modules/nrf/lib/dk_buttons_and_leds/lib..__nrf__lib__dk_buttons_and_leds.a(dk_buttons_and_leds.c.obj)
 .text.dk_set_led
                0x00000000       0x38 zephyr/modules/nrf/lib/dk_buttons_and_leds/lib..__nrf__lib__dk_buttons_and_leds.a(dk_buttons_and_leds.c.obj)
 .text.dk_set_led_on
                0x00000000        0x6 zephyr/modules/nrf/lib/dk_buttons_and_leds/lib..__nrf__lib__dk_buttons_and_leds.a(dk_buttons_and_leds.c.obj)
 .text.dk_set_led_off
                0x00000000        0x6 zephyr/modules/nrf/lib/dk_buttons_and_leds/lib..__nrf__lib__dk_buttons_and_leds.a(dk_buttons_and_leds.c.obj)
 .bss.led_devs  0x00000000       0x10 zephyr/modules/nrf/lib/dk_buttons_and_leds/lib..__nrf__lib__dk_buttons_and_leds.a(dk_buttons_and_leds.c.obj)
 .rodata.led_pins
                0x00000000       0x20 zephyr/modules/nrf/lib/dk_buttons_and_leds/lib..__nrf__lib__dk_buttons_and_leds.a(dk_buttons_and_leds.c.obj)
 .text          0x00000000        0x0 zephyr/kernel/libkernel.a(device.c.obj)
 .data          0x00000000        0x0 zephyr/kernel/libkernel.a(device.c.obj)
 .bss           0x00000000        0x0 zephyr/kernel/libkernel.a(device.c.obj)
 .text.device_busy_set
                0x00000000        0x2 zephyr/kernel/libkernel.a(device.c.obj)
 .text.device_busy_clear
                0x00000000        0x2 zephyr/kernel/libkernel.a(device.c.obj)
 .text          0x00000000        0x0 zephyr/kernel/libkernel.a(errno.c.obj)
 .data          0x00000000        0x0 zephyr/kernel/libkernel.a(errno.c.obj)
 .bss           0x00000000        0x0 zephyr/kernel/libkernel.a(errno.c.obj)
 .text.z_impl_z_errno
                0x00000000        0xc zephyr/kernel/libkernel.a(errno.c.obj)
 .text          0x00000000        0x0 zephyr/kernel/libkernel.a(fatal.c.obj)
 .data          0x00000000        0x0 zephyr/kernel/libkernel.a(fatal.c.obj)
 .bss           0x00000000        0x0 zephyr/kernel/libkernel.a(fatal.c.obj)
 .text          0x00000000        0x0 zephyr/kernel/libkernel.a(idle.c.obj)
 .data          0x00000000        0x0 zephyr/kernel/libkernel.a(idle.c.obj)
 .bss           0x00000000        0x0 zephyr/kernel/libkernel.a(idle.c.obj)
 .bss.sys_pm_idle_exit_notify
                0x00000000        0x1 zephyr/kernel/libkernel.a(idle.c.obj)
 .text          0x00000000        0x0 zephyr/kernel/libkernel.a(init.c.obj)
 .data          0x00000000        0x0 zephyr/kernel/libkernel.a(init.c.obj)
 .bss           0x00000000        0x0 zephyr/kernel/libkernel.a(init.c.obj)
 .text.main     0x00000000        0x4 zephyr/kernel/libkernel.a(init.c.obj)
 .text.z_early_boot_rand32_get
                0x00000000       0x48 zephyr/kernel/libkernel.a(init.c.obj)
 .rodata._main_thread
                0x00000000        0x4 zephyr/kernel/libkernel.a(init.c.obj)
 .rodata.z_early_boot_rand32_get.str1.1
                0x00000000        0xa zephyr/kernel/libkernel.a(init.c.obj)
 .text          0x00000000        0x0 zephyr/kernel/libkernel.a(mempool.c.obj)
 .data          0x00000000        0x0 zephyr/kernel/libkernel.a(mempool.c.obj)
 .bss           0x00000000        0x0 zephyr/kernel/libkernel.a(mempool.c.obj)
 .text.k_mem_pool_free
                0x00000000        0x6 zephyr/kernel/libkernel.a(mempool.c.obj)
 .text.k_calloc
                0x00000000       0x24 zephyr/kernel/libkernel.a(mempool.c.obj)
 .text.k_thread_system_pool_assign
                0x00000000        0xc zephyr/kernel/libkernel.a(mempool.c.obj)
 .text          0x00000000        0x0 zephyr/kernel/libkernel.a(mutex.c.obj)
 .data          0x00000000        0x0 zephyr/kernel/libkernel.a(mutex.c.obj)
 .bss           0x00000000        0x0 zephyr/kernel/libkernel.a(mutex.c.obj)
 .text.z_impl_k_mutex_init
                0x00000000        0xc zephyr/kernel/libkernel.a(mutex.c.obj)
 .text.z_impl_k_mutex_lock
                0x00000000       0xe0 zephyr/kernel/libkernel.a(mutex.c.obj)
 .text.z_impl_k_mutex_unlock
                0x00000000       0x80 zephyr/kernel/libkernel.a(mutex.c.obj)
 .bss.lock      0x00000000        0x0 zephyr/kernel/libkernel.a(mutex.c.obj)
 .debug_info    0x00000000     0x10db zephyr/kernel/libkernel.a(mutex.c.obj)
 .debug_abbrev  0x00000000      0x377 zephyr/kernel/libkernel.a(mutex.c.obj)
 .debug_loc     0x00000000      0x309 zephyr/kernel/libkernel.a(mutex.c.obj)
 .debug_aranges
                0x00000000       0x30 zephyr/kernel/libkernel.a(mutex.c.obj)
 .debug_ranges  0x00000000       0x50 zephyr/kernel/libkernel.a(mutex.c.obj)
 .debug_line    0x00000000      0x5aa zephyr/kernel/libkernel.a(mutex.c.obj)
 .debug_str     0x00000000      0xaf0 zephyr/kernel/libkernel.a(mutex.c.obj)
 .comment       0x00000000       0x80 zephyr/kernel/libkernel.a(mutex.c.obj)
 .debug_frame   0x00000000       0x64 zephyr/kernel/libkernel.a(mutex.c.obj)
 .text          0x00000000        0x0 zephyr/kernel/libkernel.a(queue.c.obj)
 .data          0x00000000        0x0 zephyr/kernel/libkernel.a(queue.c.obj)
 .bss           0x00000000        0x0 zephyr/kernel/libkernel.a(queue.c.obj)
 .text.z_impl_k_queue_cancel_wait
                0x00000000       0x2a zephyr/kernel/libkernel.a(queue.c.obj)
 .text.k_queue_insert
                0x00000000        0x6 zephyr/kernel/libkernel.a(queue.c.obj)
 .text.z_impl_k_queue_alloc_append
                0x00000000        0xa zephyr/kernel/libkernel.a(queue.c.obj)
 .text.z_impl_k_queue_alloc_prepend
                0x00000000        0xa zephyr/kernel/libkernel.a(queue.c.obj)
 .text.k_queue_merge_slist
                0x00000000       0x14 zephyr/kernel/libkernel.a(queue.c.obj)
 .text          0x00000000        0x0 zephyr/kernel/libkernel.a(sched.c.obj)
 .data          0x00000000        0x0 zephyr/kernel/libkernel.a(sched.c.obj)
 .bss           0x00000000        0x0 zephyr/kernel/libkernel.a(sched.c.obj)
 .text.z_find_first_thread_to_unpend
                0x00000000       0x20 zephyr/kernel/libkernel.a(sched.c.obj)
 .text.z_priq_dumb_add
                0x00000000       0x40 zephyr/kernel/libkernel.a(sched.c.obj)
 .text.z_pend_thread
                0x00000000        0x4 zephyr/kernel/libkernel.a(sched.c.obj)
 .text.z_thread_priority_set
                0x00000000       0x9c zephyr/kernel/libkernel.a(sched.c.obj)
 .text.z_priq_rb_lessthan
                0x00000000       0x24 zephyr/kernel/libkernel.a(sched.c.obj)
 .text.z_priq_rb_add
                0x00000000       0x5c zephyr/kernel/libkernel.a(sched.c.obj)
 .text.z_priq_rb_remove
                0x00000000       0x10 zephyr/kernel/libkernel.a(sched.c.obj)
 .text.z_priq_rb_best
                0x00000000        0x6 zephyr/kernel/libkernel.a(sched.c.obj)
 .text.z_priq_mq_add
                0x00000000       0x36 zephyr/kernel/libkernel.a(sched.c.obj)
 .text.z_priq_mq_remove
                0x00000000       0x38 zephyr/kernel/libkernel.a(sched.c.obj)
 .text.z_priq_mq_best
                0x00000000       0x20 zephyr/kernel/libkernel.a(sched.c.obj)
 .text.z_impl_k_thread_priority_get
                0x00000000        0x6 zephyr/kernel/libkernel.a(sched.c.obj)
 .text.z_impl_k_thread_priority_set
                0x00000000        0x4 zephyr/kernel/libkernel.a(sched.c.obj)
 .text.z_impl_k_usleep
                0x00000000       0x54 zephyr/kernel/libkernel.a(sched.c.obj)
 .text.z_impl_k_wakeup
                0x00000000       0x4c zephyr/kernel/libkernel.a(sched.c.obj)
 .text.z_impl_k_is_preempt_thread
                0x00000000       0x30 zephyr/kernel/libkernel.a(sched.c.obj)
 .text          0x00000000        0x0 zephyr/kernel/libkernel.a(sem.c.obj)
 .data          0x00000000        0x0 zephyr/kernel/libkernel.a(sem.c.obj)
 .bss           0x00000000        0x0 zephyr/kernel/libkernel.a(sem.c.obj)
 .text          0x00000000        0x0 zephyr/kernel/libkernel.a(system_work_q.c.obj)
 .data          0x00000000        0x0 zephyr/kernel/libkernel.a(system_work_q.c.obj)
 .bss           0x00000000        0x0 zephyr/kernel/libkernel.a(system_work_q.c.obj)
 .text          0x00000000        0x0 zephyr/kernel/libkernel.a(thread.c.obj)
 .data          0x00000000        0x0 zephyr/kernel/libkernel.a(thread.c.obj)
 .bss           0x00000000        0x0 zephyr/kernel/libkernel.a(thread.c.obj)
 .text.k_thread_foreach
                0x00000000        0x2 zephyr/kernel/libkernel.a(thread.c.obj)
 .text.k_is_in_isr
                0x00000000       0x20 zephyr/kernel/libkernel.a(thread.c.obj)
 .text.z_thread_essential_set
                0x00000000       0x14 zephyr/kernel/libkernel.a(thread.c.obj)
 .text.z_thread_essential_clear
                0x00000000       0x14 zephyr/kernel/libkernel.a(thread.c.obj)
 .text.z_is_thread_essential
                0x00000000       0x10 zephyr/kernel/libkernel.a(thread.c.obj)
 .text.z_impl_k_busy_wait
                0x00000000        0x4 zephyr/kernel/libkernel.a(thread.c.obj)
 .text.z_impl_k_thread_name_copy
                0x00000000        0x6 zephyr/kernel/libkernel.a(thread.c.obj)
 .text.z_thread_single_suspend
                0x00000000       0x1a zephyr/kernel/libkernel.a(thread.c.obj)
 .text.z_impl_k_thread_suspend
                0x00000000       0x40 zephyr/kernel/libkernel.a(thread.c.obj)
 .text.z_thread_single_resume
                0x00000000       0x1e zephyr/kernel/libkernel.a(thread.c.obj)
 .text.z_impl_k_thread_resume
                0x00000000       0x28 zephyr/kernel/libkernel.a(thread.c.obj)
 .text.k_thread_user_mode_enter
                0x00000000       0x24 zephyr/kernel/libkernel.a(thread.c.obj)
 .text.z_impl_k_float_disable
                0x00000000        0x6 zephyr/kernel/libkernel.a(thread.c.obj)
 .text          0x00000000        0x0 zephyr/kernel/libkernel.a(work_q.c.obj)
 .data          0x00000000        0x0 zephyr/kernel/libkernel.a(work_q.c.obj)
 .bss           0x00000000        0x0 zephyr/kernel/libkernel.a(work_q.c.obj)
 .text          0x00000000        0x0 zephyr/kernel/libkernel.a(timeout.c.obj)
 .data          0x00000000        0x0 zephyr/kernel/libkernel.a(timeout.c.obj)
 .bss           0x00000000        0x0 zephyr/kernel/libkernel.a(timeout.c.obj)
 .text.z_timeout_remaining
                0x00000000       0x54 zephyr/kernel/libkernel.a(timeout.c.obj)
 .text          0x00000000        0x0 zephyr/kernel/libkernel.a(poll.c.obj)
 .data          0x00000000        0x0 zephyr/kernel/libkernel.a(poll.c.obj)
 .bss           0x00000000        0x0 zephyr/kernel/libkernel.a(poll.c.obj)
 .text.z_impl_k_poll_signal_init
                0x00000000        0xa zephyr/kernel/libkernel.a(poll.c.obj)
 .text.z_impl_k_poll_signal_check
                0x00000000        0xa zephyr/kernel/libkernel.a(poll.c.obj)
 .text          0x00000000        0x0 zephyr/CMakeFiles/offsets.dir/arch/arm/core/offsets/offsets.c.obj
 .data          0x00000000        0x0 zephyr/CMakeFiles/offsets.dir/arch/arm/core/offsets/offsets.c.obj
 .bss           0x00000000        0x0 zephyr/CMakeFiles/offsets.dir/arch/arm/core/offsets/offsets.c.obj
 .data          0x00000000        0x0 c:/program files (x86)/gnu tools arm embedded/7 2018-q2-update/bin/../lib/gcc/arm-none-eabi/7.3.1/thumb/v7e-m\libgcc.a(_arm_addsubsf3.o)
 .bss           0x00000000        0x0 c:/program files (x86)/gnu tools arm embedded/7 2018-q2-update/bin/../lib/gcc/arm-none-eabi/7.3.1/thumb/v7e-m\libgcc.a(_arm_addsubsf3.o)
 .data          0x00000000        0x0 c:/program files (x86)/gnu tools arm embedded/7 2018-q2-update/bin/../lib/gcc/arm-none-eabi/7.3.1/thumb/v7e-m\libgcc.a(_arm_muldivsf3.o)
 .bss           0x00000000        0x0 c:/program files (x86)/gnu tools arm embedded/7 2018-q2-update/bin/../lib/gcc/arm-none-eabi/7.3.1/thumb/v7e-m\libgcc.a(_arm_muldivsf3.o)
 .data          0x00000000        0x0 c:/program files (x86)/gnu tools arm embedded/7 2018-q2-update/bin/../lib/gcc/arm-none-eabi/7.3.1/thumb/v7e-m\libgcc.a(_arm_fixsfsi.o)
 .bss           0x00000000        0x0 c:/program files (x86)/gnu tools arm embedded/7 2018-q2-update/bin/../lib/gcc/arm-none-eabi/7.3.1/thumb/v7e-m\libgcc.a(_arm_fixsfsi.o)
 .data          0x00000000        0x0 c:/program files (x86)/gnu tools arm embedded/7 2018-q2-update/bin/../lib/gcc/arm-none-eabi/7.3.1/thumb/v7e-m\libgcc.a(_arm_fixunssfsi.o)
 .bss           0x00000000        0x0 c:/program files (x86)/gnu tools arm embedded/7 2018-q2-update/bin/../lib/gcc/arm-none-eabi/7.3.1/thumb/v7e-m\libgcc.a(_arm_fixunssfsi.o)
 .data          0x00000000        0x0 c:/program files (x86)/gnu tools arm embedded/7 2018-q2-update/bin/../lib/gcc/arm-none-eabi/7.3.1/thumb/v7e-m\libgcc.a(_aeabi_ldivmod.o)
 .bss           0x00000000        0x0 c:/program files (x86)/gnu tools arm embedded/7 2018-q2-update/bin/../lib/gcc/arm-none-eabi/7.3.1/thumb/v7e-m\libgcc.a(_aeabi_ldivmod.o)
 .data          0x00000000        0x0 c:/program files (x86)/gnu tools arm embedded/7 2018-q2-update/bin/../lib/gcc/arm-none-eabi/7.3.1/thumb/v7e-m\libgcc.a(_aeabi_uldivmod.o)
 .bss           0x00000000        0x0 c:/program files (x86)/gnu tools arm embedded/7 2018-q2-update/bin/../lib/gcc/arm-none-eabi/7.3.1/thumb/v7e-m\libgcc.a(_aeabi_uldivmod.o)
 .data          0x00000000        0x0 c:/program files (x86)/gnu tools arm embedded/7 2018-q2-update/bin/../lib/gcc/arm-none-eabi/7.3.1/thumb/v7e-m\libgcc.a(_udivmoddi4.o)
 .bss           0x00000000        0x0 c:/program files (x86)/gnu tools arm embedded/7 2018-q2-update/bin/../lib/gcc/arm-none-eabi/7.3.1/thumb/v7e-m\libgcc.a(_udivmoddi4.o)
 .ARM.extab     0x00000000        0x0 c:/program files (x86)/gnu tools arm embedded/7 2018-q2-update/bin/../lib/gcc/arm-none-eabi/7.3.1/thumb/v7e-m\libgcc.a(_udivmoddi4.o)
 .data          0x00000000        0x0 c:/program files (x86)/gnu tools arm embedded/7 2018-q2-update/bin/../lib/gcc/arm-none-eabi/7.3.1/thumb/v7e-m\libgcc.a(_dvmd_tls.o)
 .bss           0x00000000        0x0 c:/program files (x86)/gnu tools arm embedded/7 2018-q2-update/bin/../lib/gcc/arm-none-eabi/7.3.1/thumb/v7e-m\libgcc.a(_dvmd_tls.o)

Memory Configuration

Name             Origin             Length             Attributes
FLASH            0x00000000         0x00030000         xr
SRAM             0x20000000         0x00006000         xw
IDT_LIST         0x20006000         0x00000800         xw
*default*        0x00000000         0xffffffff

Linker script and memory map

LOAD zephyr/CMakeFiles/zephyr_prebuilt.dir/misc/empty_file.c.obj
                0x00000020                _region_min_align = 0x20

.rel.plt        0x00000000        0x0
 *(SORT_BY_ALIGNMENT(.rel.plt))
                [!provide]                PROVIDE (__rel_iplt_start = .)
 *(SORT_BY_ALIGNMENT(.rel.iplt))
 .rel.iplt      0x00000000        0x0 app/libapp.a(main.c.obj)
                [!provide]                PROVIDE (__rel_iplt_end = .)

.rela.plt       0x00000000        0x0
 *(SORT_BY_ALIGNMENT(.rela.plt))
                [!provide]                PROVIDE (__rela_iplt_start = .)
 *(SORT_BY_ALIGNMENT(.rela.iplt))
                [!provide]                PROVIDE (__rela_iplt_end = .)

.rel.dyn
 *(SORT_BY_ALIGNMENT(.rel.*))

.rela.dyn
 *(SORT_BY_ALIGNMENT(.rela.*))

/DISCARD/
 *(SORT_BY_ALIGNMENT(.plt))
 *(SORT_BY_ALIGNMENT(.iplt))
 *(SORT_BY_ALIGNMENT(.got.plt))
 *(SORT_BY_ALIGNMENT(.igot.plt))
 *(SORT_BY_ALIGNMENT(.got))
 *(SORT_BY_ALIGNMENT(.igot))
                0x00000000                _image_rom_start = 0x0

text            0x00000000       0xb8
                0x00000000                . = 0x0
                0x00000000                _vector_start = .
 *(SORT_BY_ALIGNMENT(.exc_vector_table))
 *(SORT_BY_ALIGNMENT(.exc_vector_table.*))
 .exc_vector_table._vector_table_section
                0x00000000       0x40 zephyr/arch/arm/core/cortex_m/libarch__arm__core__cortex_m.a(vector_table.S.obj)
                0x00000000                _vector_table
 *(SORT_BY_ALIGNMENT(.gnu.linkonce.irq_vector_table))
 .gnu.linkonce.irq_vector_table
                0x00000040       0x78 zephyr/libzephyr.a(isr_tables.c.obj)
                0x00000040                _irq_vector_table
 *(SORT_BY_ALIGNMENT(.vectors))
 *(SORT_BY_ALIGNMENT(.openocd_dbg))
 *(SORT_BY_ALIGNMENT(.openocd_dbg.*))
 *(SORT_BY_ALIGNMENT(.kinetis_flash_config))
 *(SORT_BY_ALIGNMENT(.kinetis_flash_config.*))
                0x000000b8                _vector_end = .

_TEXT_SECTION_NAME_2
                0x000000b8    0x17158
                0x000000b8                _image_text_start = .
 *(SORT_BY_ALIGNMENT(.text))
 .text          0x000000b8      0x21c c:/program files (x86)/gnu tools arm embedded/7 2018-q2-update/bin/../lib/gcc/arm-none-eabi/7.3.1/thumb/v7e-m\libgcc.a(_arm_addsubsf3.o)
                0x000000b8                __aeabi_frsub
                0x000000c0                __subsf3
                0x000000c0                __aeabi_fsub
                0x000000c4                __aeabi_fadd
                0x000000c4                __addsf3
                0x00000224                __aeabi_ui2f
                0x00000224                __floatunsisf
                0x0000022c                __aeabi_i2f
                0x0000022c                __floatsisf
                0x00000248                __aeabi_ul2f
                0x00000248                __floatundisf
                0x00000258                __aeabi_l2f
                0x00000258                __floatdisf
 .text          0x000002d4      0x2a0 c:/program files (x86)/gnu tools arm embedded/7 2018-q2-update/bin/../lib/gcc/arm-none-eabi/7.3.1/thumb/v7e-m\libgcc.a(_arm_muldivsf3.o)
                0x000002d4                __mulsf3
                0x000002d4                __aeabi_fmul
                0x0000043c                __aeabi_fdiv
                0x0000043c                __divsf3
 .text          0x00000574       0x4c c:/program files (x86)/gnu tools arm embedded/7 2018-q2-update/bin/../lib/gcc/arm-none-eabi/7.3.1/thumb/v7e-m\libgcc.a(_arm_fixsfsi.o)
                0x00000574                __aeabi_f2iz
                0x00000574                __fixsfsi
 .text          0x000005c0       0x40 c:/program files (x86)/gnu tools arm embedded/7 2018-q2-update/bin/../lib/gcc/arm-none-eabi/7.3.1/thumb/v7e-m\libgcc.a(_arm_fixunssfsi.o)
                0x000005c0                __fixunssfsi
                0x000005c0                __aeabi_f2uiz
 .text          0x00000600       0xa0 c:/program files (x86)/gnu tools arm embedded/7 2018-q2-update/bin/../lib/gcc/arm-none-eabi/7.3.1/thumb/v7e-m\libgcc.a(_aeabi_ldivmod.o)
                0x00000600                __aeabi_ldivmod
 .text          0x000006a0       0x30 c:/program files (x86)/gnu tools arm embedded/7 2018-q2-update/bin/../lib/gcc/arm-none-eabi/7.3.1/thumb/v7e-m\libgcc.a(_aeabi_uldivmod.o)
                0x000006a0                __aeabi_uldivmod
 .text          0x000006d0      0x2cc c:/program files (x86)/gnu tools arm embedded/7 2018-q2-update/bin/../lib/gcc/arm-none-eabi/7.3.1/thumb/v7e-m\libgcc.a(_udivmoddi4.o)
                0x000006d0                __udivmoddi4
 .text          0x0000099c        0x4 c:/program files (x86)/gnu tools arm embedded/7 2018-q2-update/bin/../lib/gcc/arm-none-eabi/7.3.1/thumb/v7e-m\libgcc.a(_dvmd_tls.o)
                0x0000099c                __aeabi_idiv0
                0x0000099c                __aeabi_ldiv0
 *(SORT_BY_ALIGNMENT(.text.*))
 .text.hci_init
                0x000009a0      0x474 zephyr/subsys/bluetooth/host/libsubsys__bluetooth__host.a(hci_core.c.obj)
 *fill*         0x00000e14        0x4 
 .text.event_slave_prepare
                0x00000e18     0x10c4 zephyr/subsys/bluetooth/controller/libsubsys__bluetooth__controller.a(ctrl.c.obj)
 *fill*         0x00001edc        0x4 
 .text.isr      0x00001ee0     0x1648 zephyr/subsys/bluetooth/controller/libsubsys__bluetooth__controller.a(ctrl.c.obj)
 .text.radio_adv_enable
                0x00003528      0x344 zephyr/subsys/bluetooth/controller/libsubsys__bluetooth__controller.a(ctrl.c.obj)
                0x00003528                radio_adv_enable
 .text.security_changed
                0x0000386c        0xc app/libapp.a(main.c.obj)
                0x0000386c                security_changed
 .text.pairing_complete
                0x00003878       0x10 app/libapp.a(main.c.obj)
                0x00003878                pairing_complete
 .text.pairing_failed
                0x00003888        0xc app/libapp.a(main.c.obj)
                0x00003888                pairing_failed
 .text.disconnected
                0x00003894       0x3c app/libapp.a(main.c.obj)
                0x00003894                disconnected
 .text.auth_done
                0x000038d0       0x20 app/libapp.a(main.c.obj)
                0x000038d0                auth_done
 .text.connected
                0x000038f0       0x38 app/libapp.a(main.c.obj)
                0x000038f0                connected
 .text.bt_ready
                0x00003928       0x78 app/libapp.a(main.c.obj)
                0x00003928                bt_ready
 .text.bt_addr_le_to_str.constprop.3
                0x000039a0       0x78 app/libapp.a(main.c.obj)
 .text.bt_receive_cb
                0x00003a18       0xf8 app/libapp.a(main.c.obj)
                0x00003a18                bt_receive_cb
 .text.auth_cancel
                0x00003b10       0x20 app/libapp.a(main.c.obj)
                0x00003b10                auth_cancel
 .text.auth_passkey_confirm
                0x00003b30       0x3c app/libapp.a(main.c.obj)
                0x00003b30                auth_passkey_confirm
 .text.auth_passkey_display
                0x00003b6c       0x24 app/libapp.a(main.c.obj)
                0x00003b6c                auth_passkey_display
 .text.ble_write_thread
                0x00003b90       0x50 app/libapp.a(main.c.obj)
                0x00003b90                ble_write_thread
 .text.uart_cb  0x00003be0      0x100 app/libapp.a(main.c.obj)
 .text.error    0x00003ce0       0x5c app/libapp.a(main.c.obj)
                0x00003ce0                error
 .text.configure_buttons
                0x00003d3c       0x20 app/libapp.a(main.c.obj)
                0x00003d3c                configure_buttons
 .text.setup_pwm
                0x00003d5c       0x44 app/libapp.a(main.c.obj)
                0x00003d5c                setup_pwm
 .text.random_char
                0x00003da0       0x20 app/libapp.a(main.c.obj)
                0x00003da0                random_char
 .text.encrypt  0x00003dc0       0x74 app/libapp.a(main.c.obj)
                0x00003dc0                encrypt
 .text.led_blink_thread
                0x00003e34      0x104 app/libapp.a(main.c.obj)
 .text.set_pwm_value
                0x00003f38       0x28 app/libapp.a(main.c.obj)
                0x00003f38                set_pwm_value
 .text.manual_pwm_thread
                0x00003f60       0x18 app/libapp.a(main.c.obj)
                0x00003f60                manual_pwm_thread
 .text.set_led_state
                0x00003f78       0x20 app/libapp.a(board_functions.c.obj)
                0x00003f78                set_led_state
 .text.init_gpio
                0x00003f98       0xa4 app/libapp.a(board_functions.c.obj)
                0x00003f98                init_gpio
 .text.sample_adc
                0x0000403c       0xd8 app/libapp.a(adc.c.obj)
                0x0000403c                sample_adc
 .text.char_out
                0x00004114       0x10 zephyr/libzephyr.a(printk.c.obj)
 .text._printk_dec_ulong
                0x00004124       0x98 zephyr/libzephyr.a(printk.c.obj)
 .text.__printk_hook_install
                0x000041bc        0xc zephyr/libzephyr.a(printk.c.obj)
                0x000041bc                __printk_hook_install
 .text.vprintk  0x000041c8       0x20 zephyr/libzephyr.a(printk.c.obj)
                0x000041c8                vprintk
 .text.vsnprintk
                0x000041e8       0x28 zephyr/libzephyr.a(printk.c.obj)
                0x000041e8                vsnprintk
 .text.uECC_get_rng
                0x00004210        0xc zephyr/libzephyr.a(ecc.c.obj)
                0x00004210                uECC_get_rng
 .text.vli_mmod_fast_secp256r1
                0x0000421c      0x1a0 zephyr/libzephyr.a(ecc.c.obj)
                0x0000421c                vli_mmod_fast_secp256r1
 .text.tc_aes128_set_encrypt_key
                0x000043bc       0xac zephyr/libzephyr.a(aes_encrypt.c.obj)
                0x000043bc                tc_aes128_set_encrypt_key
 .text.tc_aes_encrypt
                0x00004468       0xd4 zephyr/libzephyr.a(aes_encrypt.c.obj)
                0x00004468                tc_aes_encrypt
 .text.errata_16
                0x0000453c       0x34 zephyr/libzephyr.a(system_nrf52810.c.obj)
 .text.errata_31
                0x00004570       0x54 zephyr/libzephyr.a(system_nrf52810.c.obj)
 .text.errata_108
                0x000045c4       0x40 zephyr/libzephyr.a(system_nrf52810.c.obj)
 .text.SystemInit
                0x00004604      0x270 zephyr/libzephyr.a(system_nrf52810.c.obj)
                0x00004604                SystemInit
 .text.nrfx_pwm_init
                0x00004874       0xfc zephyr/libzephyr.a(nrfx_pwm.c.obj)
                0x00004874                nrfx_pwm_init
 .text.nrfx_pwm_simple_playback
                0x00004970       0x74 zephyr/libzephyr.a(nrfx_pwm.c.obj)
                0x00004970                nrfx_pwm_simple_playback
 .text.nrfx_pwm_is_stopped
                0x000049e4       0x28 zephyr/libzephyr.a(nrfx_pwm.c.obj)
                0x000049e4                nrfx_pwm_is_stopped
 .text.sys_rand32_get
                0x00004a0c       0x34 zephyr/libzephyr.a(rand32_entropy_device.c.obj)
                0x00004a0c                sys_rand32_get
 .text.console_out
                0x00004a40       0x28 zephyr/libzephyr.a(uart_console.c.obj)
 .text.uart_console_hook_install
                0x00004a68       0x18 zephyr/libzephyr.a(uart_console.c.obj)
                0x00004a68                uart_console_hook_install
 .text.uart_console_init
                0x00004a80       0x1c zephyr/libzephyr.a(uart_console.c.obj)
 .text.m16src_stop
                0x00004a9c       0x74 zephyr/libzephyr.a(nrf_power_clock.c.obj)
 .text.m16src_start
                0x00004b10       0xc4 zephyr/libzephyr.a(nrf_power_clock.c.obj)
 .text.k32src_start
                0x00004bd4       0xb0 zephyr/libzephyr.a(nrf_power_clock.c.obj)
 .text.nrf_power_clock_isr
                0x00004c84       0xe4 zephyr/libzephyr.a(nrf_power_clock.c.obj)
                0x00004c84                nrf_power_clock_isr
 .text.rtc1_nrf_isr
                0x00004d68       0x40 zephyr/libzephyr.a(nrf_rtc_timer.c.obj)
                0x00004d68                rtc1_nrf_isr
 .text.z_clock_driver_init
                0x00004da8       0x84 zephyr/libzephyr.a(nrf_rtc_timer.c.obj)
                0x00004da8                z_clock_driver_init
 .text.z_clock_set_timeout
                0x00004e2c       0x9c zephyr/libzephyr.a(nrf_rtc_timer.c.obj)
                0x00004e2c                z_clock_set_timeout
 .text.z_clock_elapsed
                0x00004ec8       0x34 zephyr/libzephyr.a(nrf_rtc_timer.c.obj)
                0x00004ec8                z_clock_elapsed
 .text.z_timer_cycle_get_32
                0x00004efc       0x34 zephyr/libzephyr.a(nrf_rtc_timer.c.obj)
                0x00004efc                z_timer_cycle_get_32
 .text.on_receive
                0x00004f30       0x18 zephyr/libzephyr.a(nus.c.obj)
 .text.on_sent  0x00004f48       0x10 zephyr/libzephyr.a(nus.c.obj)
 .text.nuslc_ccc_cfg_changed
                0x00004f58       0x80 zephyr/libzephyr.a(nus.c.obj)
 .text.bt_gatt_nus_init
                0x00004fd8       0x14 zephyr/libzephyr.a(nus.c.obj)
                0x00004fd8                bt_gatt_nus_init
 .text.bt_gatt_nus_send
                0x00004fec       0x74 zephyr/libzephyr.a(nus.c.obj)
                0x00004fec                bt_gatt_nus_send
 .text._HandlerModeExit
                0x00005060       0x1c zephyr/arch/arm/core/libarch__arm__core.a(exc_exit.S.obj)
                0x00005060                _IntExit
                0x00005060                z_ExcExit
 .text.__pendsv
                0x0000507c       0x58 zephyr/arch/arm/core/libarch__arm__core.a(swap_helper.S.obj)
                0x0000507c                __pendsv
 .text.__svc    0x000050d4       0x24 zephyr/arch/arm/core/libarch__arm__core.a(swap_helper.S.obj)
                0x000050d4                __svc
 .text.z_CpuIdleInit
                0x000050f8        0xc zephyr/arch/arm/core/libarch__arm__core.a(cpu_idle.S.obj)
                0x000050f8                z_CpuIdleInit
 .text.k_cpu_idle
                0x00005104        0xc zephyr/arch/arm/core/libarch__arm__core.a(cpu_idle.S.obj)
                0x00005104                k_cpu_idle
 .text.__fault  0x00005110       0x28 zephyr/arch/arm/core/libarch__arm__core.a(fault_s.S.obj)
                0x00005110                __reserved
                0x00005110                __bus_fault
                0x00005110                __debug_monitor
                0x00005110                __mpu_fault
                0x00005110                __hard_fault
                0x00005110                __usage_fault
 .text.z_SysNmiOnReset
                0x00005138        0x8 zephyr/arch/arm/core/libarch__arm__core.a(nmi_on_reset.S.obj)
                0x00005138                z_SysNmiOnReset
 .text._isr_wrapper
                0x00005140       0x40 zephyr/arch/arm/core/libarch__arm__core.a(isr_wrapper.S.obj)
                0x00005140                _isr_wrapper
 .text.__swap   0x00005180       0x34 zephyr/arch/arm/core/libarch__arm__core.a(swap.c.obj)
                0x00005180                __swap
 .text.z_arch_irq_enable
                0x000051b4       0x20 zephyr/arch/arm/core/libarch__arm__core.a(irq_manage.c.obj)
                0x000051b4                z_arch_irq_enable
 .text.z_arch_irq_disable
                0x000051d4       0x28 zephyr/arch/arm/core/libarch__arm__core.a(irq_manage.c.obj)
                0x000051d4                z_arch_irq_disable
 .text.z_arch_irq_is_enabled
                0x000051fc       0x1c zephyr/arch/arm/core/libarch__arm__core.a(irq_manage.c.obj)
                0x000051fc                z_arch_irq_is_enabled
 .text.z_irq_priority_set
                0x00005218       0x30 zephyr/arch/arm/core/libarch__arm__core.a(irq_manage.c.obj)
                0x00005218                z_irq_priority_set
 .text._arch_isr_direct_pm
                0x00005248       0x1c zephyr/arch/arm/core/libarch__arm__core.a(irq_manage.c.obj)
                0x00005248                _arch_isr_direct_pm
 .text.z_new_thread
                0x00005264       0x54 zephyr/arch/arm/core/libarch__arm__core.a(thread.c.obj)
                0x00005264                z_new_thread
 .text.z_arm_fatal_error
                0x000052b8       0x4c zephyr/arch/arm/core/libarch__arm__core.a(fatal.c.obj)
                0x000052b8                z_arm_fatal_error
 .text._PrepC   0x00005304       0x2c zephyr/arch/arm/core/libarch__arm__core.a(prep_c.c.obj)
                0x00005304                _PrepC
 .text._reset_section
                0x00005330       0x30 zephyr/arch/arm/core/cortex_m/libarch__arm__core__cortex_m.a(reset.S.obj)
                0x00005330                __start
                0x00005330                __reset
 .text.MpuFault.isra.2
                0x00005360       0x84 zephyr/arch/arm/core/cortex_m/libarch__arm__core__cortex_m.a(fault.c.obj)
 .text.BusFault.isra.3
                0x000053e4       0x94 zephyr/arch/arm/core/cortex_m/libarch__arm__core__cortex_m.a(fault.c.obj)
 .text.UsageFault.isra.4
                0x00005478       0x88 zephyr/arch/arm/core/cortex_m/libarch__arm__core__cortex_m.a(fault.c.obj)
 .text._Fault   0x00005500       0xe8 zephyr/arch/arm/core/cortex_m/libarch__arm__core__cortex_m.a(fault.c.obj)
                0x00005500                _Fault
 .text.z_FaultInit
                0x000055e8       0x10 zephyr/arch/arm/core/cortex_m/libarch__arm__core__cortex_m.a(fault.c.obj)
                0x000055e8                z_FaultInit
 .text.z_IntLibInit
                0x000055f8       0x18 zephyr/arch/arm/core/cortex_m/libarch__arm__core__cortex_m.a(irq_init.c.obj)
                0x000055f8                z_IntLibInit
 .text.z_impl_k_thread_abort
                0x00005610       0x4c zephyr/arch/arm/core/cortex_m/libarch__arm__core__cortex_m.a(thread_abort.c.obj)
                0x00005610                z_impl_k_thread_abort
 .text.z_arch_configure_static_mpu_regions
                0x0000565c       0x3c zephyr/arch/arm/core/cortex_m/mpu/libarch__arm__core__cortex_m__mpu.a(arm_core_mpu.c.obj)
                0x0000565c                z_arch_configure_static_mpu_regions
 .text.mpu_configure_region
                0x00005698       0x50 zephyr/arch/arm/core/cortex_m/mpu/libarch__arm__core__cortex_m__mpu.a(arm_mpu.c.obj)
 .text.arm_core_mpu_enable
                0x000056e8       0x14 zephyr/arch/arm/core/cortex_m/mpu/libarch__arm__core__cortex_m__mpu.a(arm_mpu.c.obj)
                0x000056e8                arm_core_mpu_enable
 .text.arm_core_mpu_disable
                0x000056fc       0x10 zephyr/arch/arm/core/cortex_m/mpu/libarch__arm__core__cortex_m__mpu.a(arm_mpu.c.obj)
                0x000056fc                arm_core_mpu_disable
 .text.arm_mpu_init
                0x0000570c       0x5c zephyr/arch/arm/core/cortex_m/mpu/libarch__arm__core__cortex_m__mpu.a(arm_mpu.c.obj)
 .text.arm_core_mpu_configure_static_mpu_regions
                0x00005768       0x48 zephyr/arch/arm/core/cortex_m/mpu/libarch__arm__core__cortex_m__mpu.a(arm_mpu.c.obj)
                0x00005768                arm_core_mpu_configure_static_mpu_regions
 .text.arm_core_mpu_configure_dynamic_mpu_regions
                0x000057b0       0x4c zephyr/arch/arm/core/cortex_m/mpu/libarch__arm__core__cortex_m__mpu.a(arm_mpu.c.obj)
                0x000057b0                arm_core_mpu_configure_dynamic_mpu_regions
 .text.__stdout_hook_install
                0x000057fc        0xc zephyr/lib/libc/minimal/liblib__libc__minimal.a(stdout_console.c.obj)
                0x000057fc                __stdout_hook_install
 .text.ecc_thread
                0x00005808      0x170 zephyr/subsys/bluetooth/host/libsubsys__bluetooth__host.a(hci_ecc.c.obj)
 .text.bt_hci_ecc_send
                0x00005978      0x118 zephyr/subsys/bluetooth/host/libsubsys__bluetooth__host.a(hci_ecc.c.obj)
                0x00005978                bt_hci_ecc_send
 .text.bt_hci_ecc_init
                0x00005a90       0x44 zephyr/subsys/bluetooth/host/libsubsys__bluetooth__host.a(hci_ecc.c.obj)
                0x00005a90                bt_hci_ecc_init
 .text.uuid_to_uuid128
                0x00005ad4       0x7c zephyr/subsys/bluetooth/host/libsubsys__bluetooth__host.a(uuid.c.obj)
 .text.le_dhkey_complete
                0x00005b50       0x20 zephyr/subsys/bluetooth/host/libsubsys__bluetooth__host.a(hci_core.c.obj)
 .text.le_pkey_complete
                0x00005b70       0x50 zephyr/subsys/bluetooth/host/libsubsys__bluetooth__host.a(hci_core.c.obj)
 .text.hci_le_meta_event
                0x00005bc0       0x20 zephyr/subsys/bluetooth/host/libsubsys__bluetooth__host.a(hci_core.c.obj)
 .text.hci_cmd_done.isra.16
                0x00005be0       0x28 zephyr/subsys/bluetooth/host/libsubsys__bluetooth__host.a(hci_core.c.obj)
 .text.hci_cmd_status
                0x00005c08       0x28 zephyr/subsys/bluetooth/host/libsubsys__bluetooth__host.a(hci_core.c.obj)
 .text.hci_cmd_complete
                0x00005c30       0x2c zephyr/subsys/bluetooth/host/libsubsys__bluetooth__host.a(hci_core.c.obj)
 .text.hci_tx_thread
                0x00005c5c       0xf4 zephyr/subsys/bluetooth/host/libsubsys__bluetooth__host.a(hci_core.c.obj)
 .text.id_find  0x00005d50       0x34 zephyr/subsys/bluetooth/host/libsubsys__bluetooth__host.a(hci_core.c.obj)
 .text.slave_update_conn_param
                0x00005d84       0x28 zephyr/subsys/bluetooth/host/libsubsys__bluetooth__host.a(hci_core.c.obj)
 .text.bt_hci_cmd_create
                0x00005dac       0x40 zephyr/subsys/bluetooth/host/libsubsys__bluetooth__host.a(hci_core.c.obj)
                0x00005dac                bt_hci_cmd_create
 .text.bt_hci_cmd_send
                0x00005dec       0x44 zephyr/subsys/bluetooth/host/libsubsys__bluetooth__host.a(hci_core.c.obj)
                0x00005dec                bt_hci_cmd_send
 .text.bt_hci_cmd_send_sync
                0x00005e30       0x68 zephyr/subsys/bluetooth/host/libsubsys__bluetooth__host.a(hci_core.c.obj)
                0x00005e30                bt_hci_cmd_send_sync
 .text.set_advertise_enable
                0x00005e98       0x54 zephyr/subsys/bluetooth/host/libsubsys__bluetooth__host.a(hci_core.c.obj)
 .text.hci_disconn_complete
                0x00005eec       0x58 zephyr/subsys/bluetooth/host/libsubsys__bluetooth__host.a(hci_core.c.obj)
 .text.set_random_address
                0x00005f44       0x5c zephyr/subsys/bluetooth/host/libsubsys__bluetooth__host.a(hci_core.c.obj)
 .text.le_adv_update
                0x00005fa0       0x94 zephyr/subsys/bluetooth/host/libsubsys__bluetooth__host.a(hci_core.c.obj)
 .text.le_phy_update_complete
                0x00006034       0x54 zephyr/subsys/bluetooth/host/libsubsys__bluetooth__host.a(hci_core.c.obj)
 .text.le_remote_feat_complete
                0x00006088       0x74 zephyr/subsys/bluetooth/host/libsubsys__bluetooth__host.a(hci_core.c.obj)
 .text.enh_conn_complete
                0x000060fc      0x1dc zephyr/subsys/bluetooth/host/libsubsys__bluetooth__host.a(hci_core.c.obj)
 .text.le_legacy_conn_complete
                0x000062d8       0xb4 zephyr/subsys/bluetooth/host/libsubsys__bluetooth__host.a(hci_core.c.obj)
 .text.bt_id_add
                0x0000638c      0x104 zephyr/subsys/bluetooth/host/libsubsys__bluetooth__host.a(hci_core.c.obj)
                0x0000638c                bt_id_add
 .text.bt_id_del
                0x00006490       0xec zephyr/subsys/bluetooth/host/libsubsys__bluetooth__host.a(hci_core.c.obj)
                0x00006490                bt_id_del
 .text.id_create.isra.26
                0x0000657c       0x58 zephyr/subsys/bluetooth/host/libsubsys__bluetooth__host.a(hci_core.c.obj)
 .text.bt_recv  0x000065d4       0xa0 zephyr/subsys/bluetooth/host/libsubsys__bluetooth__host.a(hci_core.c.obj)
                0x000065d4                bt_recv
 .text.bt_recv_prio
                0x00006674       0x4c zephyr/subsys/bluetooth/host/libsubsys__bluetooth__host.a(hci_core.c.obj)
                0x00006674                bt_recv_prio
 .text.bt_hci_driver_register
                0x000066c0       0x28 zephyr/subsys/bluetooth/host/libsubsys__bluetooth__host.a(hci_core.c.obj)
                0x000066c0                bt_hci_driver_register
 .text.bt_finalize_init
                0x000066e8        0xc zephyr/subsys/bluetooth/host/libsubsys__bluetooth__host.a(hci_core.c.obj)
                0x000066e8                bt_finalize_init
 .text.bt_get_name
                0x000066f4        0x8 zephyr/subsys/bluetooth/host/libsubsys__bluetooth__host.a(hci_core.c.obj)
                0x000066f4                bt_get_name
 .text.bt_id_create
                0x000066fc       0x84 zephyr/subsys/bluetooth/host/libsubsys__bluetooth__host.a(hci_core.c.obj)
                0x000066fc                bt_id_create
 .text.bt_setup_id_addr
                0x00006780       0x9c zephyr/subsys/bluetooth/host/libsubsys__bluetooth__host.a(hci_core.c.obj)
                0x00006780                bt_setup_id_addr
 .text.bt_enable
                0x0000681c       0xb8 zephyr/subsys/bluetooth/host/libsubsys__bluetooth__host.a(hci_core.c.obj)
                0x0000681c                bt_enable
 .text.init_work
                0x000068d4       0x2c zephyr/subsys/bluetooth/host/libsubsys__bluetooth__host.a(hci_core.c.obj)
 .text.bt_le_adv_start_internal
                0x00006900      0x248 zephyr/subsys/bluetooth/host/libsubsys__bluetooth__host.a(hci_core.c.obj)
                0x00006900                bt_le_adv_start_internal
 .text.bt_le_adv_stop
                0x00006b48       0x4c zephyr/subsys/bluetooth/host/libsubsys__bluetooth__host.a(hci_core.c.obj)
                0x00006b48                bt_le_adv_stop
 .text.bt_buf_get_rx
                0x00006b94       0x20 zephyr/subsys/bluetooth/host/libsubsys__bluetooth__host.a(hci_core.c.obj)
                0x00006b94                bt_buf_get_rx
 .text.bt_buf_get_cmd_complete
                0x00006bb4       0x4c zephyr/subsys/bluetooth/host/libsubsys__bluetooth__host.a(hci_core.c.obj)
                0x00006bb4                bt_buf_get_cmd_complete
 .text.bt_buf_get_evt
                0x00006c00       0x50 zephyr/subsys/bluetooth/host/libsubsys__bluetooth__host.a(hci_core.c.obj)
                0x00006c00                bt_buf_get_evt
 .text.bt_pub_key_gen
                0x00006c50       0x68 zephyr/subsys/bluetooth/host/libsubsys__bluetooth__host.a(hci_core.c.obj)
                0x00006c50                bt_pub_key_gen
 .text.bt_pub_key_get
                0x00006cb8       0x1c zephyr/subsys/bluetooth/host/libsubsys__bluetooth__host.a(hci_core.c.obj)
                0x00006cb8                bt_pub_key_get
 .text.bt_dh_key_gen
                0x00006cd4       0x74 zephyr/subsys/bluetooth/host/libsubsys__bluetooth__host.a(hci_core.c.obj)
                0x00006cd4                bt_dh_key_gen
 .text.notify_connected
                0x00006d48       0x2c zephyr/subsys/bluetooth/host/libsubsys__bluetooth__host.a(conn.c.obj)
 .text.tx_free  0x00006d74       0x28 zephyr/subsys/bluetooth/host/libsubsys__bluetooth__host.a(conn.c.obj)
 .text.bt_conn_get_pkts
                0x00006d9c        0x8 zephyr/subsys/bluetooth/host/libsubsys__bluetooth__host.a(conn.c.obj)
                0x00006d9c                bt_conn_get_pkts
 .text.notify_le_param_updated
                0x00006da4       0x68 zephyr/subsys/bluetooth/host/libsubsys__bluetooth__host.a(conn.c.obj)
                0x00006da4                notify_le_param_updated
 .text.le_param_req
                0x00006e0c       0x40 zephyr/subsys/bluetooth/host/libsubsys__bluetooth__host.a(conn.c.obj)
                0x00006e0c                le_param_req
 .text.bt_conn_identity_resolved
                0x00006e4c       0x34 zephyr/subsys/bluetooth/host/libsubsys__bluetooth__host.a(conn.c.obj)
                0x00006e4c                bt_conn_identity_resolved
 .text.bt_conn_security_changed
                0x00006e80       0x20 zephyr/subsys/bluetooth/host/libsubsys__bluetooth__host.a(conn.c.obj)
                0x00006e80                bt_conn_security_changed
 .text.bt_conn_cb_register
                0x00006ea0       0x10 zephyr/subsys/bluetooth/host/libsubsys__bluetooth__host.a(conn.c.obj)
                0x00006ea0                bt_conn_cb_register
 .text.bt_conn_notify_tx
                0x00006eb0       0x50 zephyr/subsys/bluetooth/host/libsubsys__bluetooth__host.a(conn.c.obj)
                0x00006eb0                bt_conn_notify_tx
 .text.send_frag
                0x00006f00      0x144 zephyr/subsys/bluetooth/host/libsubsys__bluetooth__host.a(conn.c.obj)
 .text.bt_conn_prepare_events
                0x00007044      0x10c zephyr/subsys/bluetooth/host/libsubsys__bluetooth__host.a(conn.c.obj)
                0x00007044                bt_conn_prepare_events
 .text.bt_conn_add_le
                0x00007150       0x88 zephyr/subsys/bluetooth/host/libsubsys__bluetooth__host.a(conn.c.obj)
                0x00007150                bt_conn_add_le
 .text.bt_conn_set_state
                0x000071d8      0x118 zephyr/subsys/bluetooth/host/libsubsys__bluetooth__host.a(conn.c.obj)
                0x000071d8                bt_conn_set_state
 .text.bt_conn_lookup_handle
                0x000072f0       0x5c zephyr/subsys/bluetooth/host/libsubsys__bluetooth__host.a(conn.c.obj)
                0x000072f0                bt_conn_lookup_handle
 .text.bt_conn_lookup_addr_le
                0x0000734c       0x64 zephyr/subsys/bluetooth/host/libsubsys__bluetooth__host.a(conn.c.obj)
                0x0000734c                bt_conn_lookup_addr_le
 .text.bt_conn_lookup_state_le
                0x000073b0       0x74 zephyr/subsys/bluetooth/host/libsubsys__bluetooth__host.a(conn.c.obj)
                0x000073b0                bt_conn_lookup_state_le
 .text.send_conn_le_param_update
                0x00007424       0x50 zephyr/subsys/bluetooth/host/libsubsys__bluetooth__host.a(conn.c.obj)
 .text.conn_le_update_timeout
                0x00007474       0x80 zephyr/subsys/bluetooth/host/libsubsys__bluetooth__host.a(conn.c.obj)
 .text.bt_conn_create_pdu
                0x000074f4       0x28 zephyr/subsys/bluetooth/host/libsubsys__bluetooth__host.a(conn.c.obj)
                0x000074f4                bt_conn_create_pdu
 .text.create_frag.isra.9
                0x0000751c       0x6c zephyr/subsys/bluetooth/host/libsubsys__bluetooth__host.a(conn.c.obj)
 .text.bt_conn_process_tx
                0x00007588       0xb4 zephyr/subsys/bluetooth/host/libsubsys__bluetooth__host.a(conn.c.obj)
                0x00007588                bt_conn_process_tx
 .text.bt_conn_auth_cb_register
                0x0000763c       0x38 zephyr/subsys/bluetooth/host/libsubsys__bluetooth__host.a(conn.c.obj)
                0x0000763c                bt_conn_auth_cb_register
 .text.bt_conn_auth_pairing_confirm
                0x00007674       0x18 zephyr/subsys/bluetooth/host/libsubsys__bluetooth__host.a(conn.c.obj)
                0x00007674                bt_conn_auth_pairing_confirm
 .text.bt_conn_index
                0x0000768c       0x18 zephyr/subsys/bluetooth/host/libsubsys__bluetooth__host.a(conn.c.obj)
                0x0000768c                bt_conn_index
 .text.bt_conn_init
                0x000076a4       0x40 zephyr/subsys/bluetooth/host/libsubsys__bluetooth__host.a(conn.c.obj)
                0x000076a4                bt_conn_init
 .text.l2cap_accept
                0x000076e4       0x2c zephyr/subsys/bluetooth/host/libsubsys__bluetooth__host.a(l2cap.c.obj)
 .text.bt_l2cap_connected
                0x00007710       0xb0 zephyr/subsys/bluetooth/host/libsubsys__bluetooth__host.a(l2cap.c.obj)
                0x00007710                bt_l2cap_connected
 .text.bt_l2cap_recv
                0x000077c0       0x6c zephyr/subsys/bluetooth/host/libsubsys__bluetooth__host.a(l2cap.c.obj)
                0x000077c0                bt_l2cap_recv
 .text.bt_l2cap_update_conn_param
                0x0000782c       0x70 zephyr/subsys/bluetooth/host/libsubsys__bluetooth__host.a(l2cap.c.obj)
                0x0000782c                bt_l2cap_update_conn_param
 .text.att_op_get_type
                0x0000789c       0x30 zephyr/subsys/bluetooth/host/libsubsys__bluetooth__host.a(att.c.obj)
 .text.bt_att_accept
                0x000078cc       0x50 zephyr/subsys/bluetooth/host/libsubsys__bluetooth__host.a(att.c.obj)
 .text.bt_att_connected
                0x0000791c       0x2c zephyr/subsys/bluetooth/host/libsubsys__bluetooth__host.a(att.c.obj)
 .text.att_cb.isra.5
                0x00007948       0x24 zephyr/subsys/bluetooth/host/libsubsys__bluetooth__host.a(att.c.obj)
 .text.att_handle_rsp
                0x0000796c       0x84 zephyr/subsys/bluetooth/host/libsubsys__bluetooth__host.a(att.c.obj)
 .text.att_req_sent
                0x000079f0       0x30 zephyr/subsys/bluetooth/host/libsubsys__bluetooth__host.a(att.c.obj)
 .text.att_write_cmd
                0x00007a20       0x7c zephyr/subsys/bluetooth/host/libsubsys__bluetooth__host.a(att.c.obj)
 .text.att_mtu_req
                0x00007a9c       0x60 zephyr/subsys/bluetooth/host/libsubsys__bluetooth__host.a(att.c.obj)
 .text.send_err_rsp.part.8
                0x00007afc       0x44 zephyr/subsys/bluetooth/host/libsubsys__bluetooth__host.a(att.c.obj)
 .text.bt_att_recv
                0x00007b40       0xd0 zephyr/subsys/bluetooth/host/libsubsys__bluetooth__host.a(att.c.obj)
 .text.att_read_group_req
                0x00007c10      0x104 zephyr/subsys/bluetooth/host/libsubsys__bluetooth__host.a(att.c.obj)
 .text.att_read_mult_req
                0x00007d14       0x90 zephyr/subsys/bluetooth/host/libsubsys__bluetooth__host.a(att.c.obj)
 .text.att_read_rsp
                0x00007da4       0x98 zephyr/subsys/bluetooth/host/libsubsys__bluetooth__host.a(att.c.obj)
 .text.att_read_type_req
                0x00007e3c       0xcc zephyr/subsys/bluetooth/host/libsubsys__bluetooth__host.a(att.c.obj)
 .text.att_find_type_req
                0x00007f08       0xe8 zephyr/subsys/bluetooth/host/libsubsys__bluetooth__host.a(att.c.obj)
 .text.att_find_info_req
                0x00007ff0       0x7c zephyr/subsys/bluetooth/host/libsubsys__bluetooth__host.a(att.c.obj)
 .text.att_write_req
                0x0000806c       0xb8 zephyr/subsys/bluetooth/host/libsubsys__bluetooth__host.a(att.c.obj)
 .text.find_static_attr
                0x00008124       0x48 zephyr/subsys/bluetooth/host/libsubsys__bluetooth__host.a(gatt.c.obj)
 .text.connected_cb
                0x0000816c       0x48 zephyr/subsys/bluetooth/host/libsubsys__bluetooth__host.a(gatt.c.obj)
 .text.gatt_indicate
                0x000081b4       0x68 zephyr/subsys/bluetooth/host/libsubsys__bluetooth__host.a(gatt.c.obj)
 .text.notify_cb
                0x0000821c       0x98 zephyr/subsys/bluetooth/host/libsubsys__bluetooth__host.a(gatt.c.obj)
 .text.read_ppcp
                0x000082b4       0x38 zephyr/subsys/bluetooth/host/libsubsys__bluetooth__host.a(gatt.c.obj)
 .text.disconnected_cb
                0x000082ec       0xa8 zephyr/subsys/bluetooth/host/libsubsys__bluetooth__host.a(gatt.c.obj)
 .text.bt_gatt_init
                0x00008394       0x50 zephyr/subsys/bluetooth/host/libsubsys__bluetooth__host.a(gatt.c.obj)
                0x00008394                bt_gatt_init
 .text.bt_gatt_attr_value_handle
                0x000083e4       0x30 zephyr/subsys/bluetooth/host/libsubsys__bluetooth__host.a(gatt.c.obj)
                0x000083e4                bt_gatt_attr_value_handle
 .text.bt_gatt_foreach_attr_type
                0x00008414       0xbc zephyr/subsys/bluetooth/host/libsubsys__bluetooth__host.a(gatt.c.obj)
                0x00008414                bt_gatt_foreach_attr_type
 .text.bt_gatt_notify_cb
                0x000084d0       0xd0 zephyr/subsys/bluetooth/host/libsubsys__bluetooth__host.a(gatt.c.obj)
                0x000084d0                bt_gatt_notify_cb
 .text.bt_gatt_connected
                0x000085a0       0x14 zephyr/subsys/bluetooth/host/libsubsys__bluetooth__host.a(gatt.c.obj)
                0x000085a0                bt_gatt_connected
 .text.bt_gatt_disconnected
                0x000085b4       0x14 zephyr/subsys/bluetooth/host/libsubsys__bluetooth__host.a(gatt.c.obj)
                0x000085b4                bt_gatt_disconnected
 .text.get_io_capa
                0x000085c8       0x4c zephyr/subsys/bluetooth/host/libsubsys__bluetooth__host.a(smp.c.obj)
 .text.bt_smp_accept
                0x00008614       0x30 zephyr/subsys/bluetooth/host/libsubsys__bluetooth__host.a(smp.c.obj)
 .text.get_auth.isra.1
                0x00008644       0x3c zephyr/subsys/bluetooth/host/libsubsys__bluetooth__host.a(smp.c.obj)
 .text.smp_init
                0x00008680       0x3c zephyr/subsys/bluetooth/host/libsubsys__bluetooth__host.a(smp.c.obj)
 .text.smp_send.isra.6
                0x000086bc       0x2c zephyr/subsys/bluetooth/host/libsubsys__bluetooth__host.a(smp.c.obj)
 .text.compute_and_check_and_send_slave_dhcheck
                0x000086e8      0x1c8 zephyr/subsys/bluetooth/host/libsubsys__bluetooth__host.a(smp.c.obj)
 .text.smp_pairing_req
                0x000088b0      0x2c4 zephyr/subsys/bluetooth/host/libsubsys__bluetooth__host.a(smp.c.obj)
 .text.sc_send_public_key
                0x00008b74       0x44 zephyr/subsys/bluetooth/host/libsubsys__bluetooth__host.a(smp.c.obj)
 .text.smp_send_pairing_confirm
                0x00008bb8       0x80 zephyr/subsys/bluetooth/host/libsubsys__bluetooth__host.a(smp.c.obj)
 .text.smp_public_key_slave.part.10
                0x00008c38       0xc8 zephyr/subsys/bluetooth/host/libsubsys__bluetooth__host.a(smp.c.obj)
 .text.smp_public_key
                0x00008d00       0x68 zephyr/subsys/bluetooth/host/libsubsys__bluetooth__host.a(smp.c.obj)
 .text.smp_pairing_complete
                0x00008d68       0x40 zephyr/subsys/bluetooth/host/libsubsys__bluetooth__host.a(smp.c.obj)
 .text.bt_smp_dhkey_ready
                0x00008da8       0x90 zephyr/subsys/bluetooth/host/libsubsys__bluetooth__host.a(smp.c.obj)
 .text.bt_smp_recv
                0x00008e38       0x78 zephyr/subsys/bluetooth/host/libsubsys__bluetooth__host.a(smp.c.obj)
 .text.smp_pairing_failed
                0x00008eb0       0x5c zephyr/subsys/bluetooth/host/libsubsys__bluetooth__host.a(smp.c.obj)
 .text.bt_smp_encrypt_change
                0x00008f0c      0x194 zephyr/subsys/bluetooth/host/libsubsys__bluetooth__host.a(smp.c.obj)
 .text.bt_smp_connected
                0x000090a0       0x1c zephyr/subsys/bluetooth/host/libsubsys__bluetooth__host.a(smp.c.obj)
 .text.bt_smp_pkey_ready
                0x000090bc       0x74 zephyr/subsys/bluetooth/host/libsubsys__bluetooth__host.a(smp.c.obj)
 .text.smp_pairing_random
                0x00009130      0x240 zephyr/subsys/bluetooth/host/libsubsys__bluetooth__host.a(smp.c.obj)
 .text.bt_smp_init
                0x00009370       0x2c zephyr/subsys/bluetooth/host/libsubsys__bluetooth__host.a(smp.c.obj)
                0x00009370                bt_smp_init
 .text.bt_keys_get_addr
                0x0000939c       0x90 zephyr/subsys/bluetooth/host/libsubsys__bluetooth__host.a(keys.c.obj)
                0x0000939c                bt_keys_get_addr
 .text.bt_keys_foreach
                0x0000942c       0x38 zephyr/subsys/bluetooth/host/libsubsys__bluetooth__host.a(keys.c.obj)
                0x0000942c                bt_keys_foreach
 .text.bt_keys_find
                0x00009464       0x50 zephyr/subsys/bluetooth/host/libsubsys__bluetooth__host.a(keys.c.obj)
                0x00009464                bt_keys_find
 .text.bt_keys_find_irk
                0x000094b4       0xb4 zephyr/subsys/bluetooth/host/libsubsys__bluetooth__host.a(keys.c.obj)
                0x000094b4                bt_keys_find_irk
 .text.bt_keys_find_addr
                0x00009568       0x48 zephyr/subsys/bluetooth/host/libsubsys__bluetooth__host.a(keys.c.obj)
                0x00009568                bt_keys_find_addr
 .text.mayfly_init
                0x000095b0       0x54 zephyr/subsys/bluetooth/controller/libsubsys__bluetooth__controller.a(mayfly.c.obj)
                0x000095b0                mayfly_init
 .text.mayfly_enable
                0x00009604       0x50 zephyr/subsys/bluetooth/controller/libsubsys__bluetooth__controller.a(mayfly.c.obj)
                0x00009604                mayfly_enable
 .text.mayfly_enqueue
                0x00009654       0xa0 zephyr/subsys/bluetooth/controller/libsubsys__bluetooth__controller.a(mayfly.c.obj)
                0x00009654                mayfly_enqueue
 .text.mayfly_run
                0x000096f4      0x164 zephyr/subsys/bluetooth/controller/libsubsys__bluetooth__controller.a(mayfly.c.obj)
                0x000096f4                mayfly_run
 .text.ticker_job
                0x00009858      0x77c zephyr/subsys/bluetooth/controller/libsubsys__bluetooth__controller.a(ticker.c.obj)
                0x00009858                ticker_job
 .text.ticker_init
                0x00009fd4       0x64 zephyr/subsys/bluetooth/controller/libsubsys__bluetooth__controller.a(ticker.c.obj)
                0x00009fd4                ticker_init
 .text.ticker_trigger
                0x0000a038       0x24 zephyr/subsys/bluetooth/controller/libsubsys__bluetooth__controller.a(ticker.c.obj)
                0x0000a038                ticker_trigger
 .text.ticker_start
                0x0000a05c       0x94 zephyr/subsys/bluetooth/controller/libsubsys__bluetooth__controller.a(ticker.c.obj)
                0x0000a05c                ticker_start
 .text.ticker_update
                0x0000a0f0       0x90 zephyr/subsys/bluetooth/controller/libsubsys__bluetooth__controller.a(ticker.c.obj)
                0x0000a0f0                ticker_update
 .text.ticker_stop
                0x0000a180       0x74 zephyr/subsys/bluetooth/controller/libsubsys__bluetooth__controller.a(ticker.c.obj)
                0x0000a180                ticker_stop
 .text.ticker_next_slot_get
                0x0000a1f4       0x7c zephyr/subsys/bluetooth/controller/libsubsys__bluetooth__controller.a(ticker.c.obj)
                0x0000a1f4                ticker_next_slot_get
 .text.ticker_job_idle_get
                0x0000a270       0x70 zephyr/subsys/bluetooth/controller/libsubsys__bluetooth__controller.a(ticker.c.obj)
                0x0000a270                ticker_job_idle_get
 .text.ticker_job_sched
                0x0000a2e0       0x2c zephyr/subsys/bluetooth/controller/libsubsys__bluetooth__controller.a(ticker.c.obj)
                0x0000a2e0                ticker_job_sched
 .text.ll_addr_get
                0x0000a30c       0x34 zephyr/subsys/bluetooth/controller/libsubsys__bluetooth__controller.a(ll_addr.c.obj)
                0x0000a30c                ll_addr_get
 .text.ll_addr_set
                0x0000a340       0x30 zephyr/subsys/bluetooth/controller/libsubsys__bluetooth__controller.a(ll_addr.c.obj)
                0x0000a340                ll_addr_set
 .text.hci_driver_init
                0x0000a370       0x10 zephyr/subsys/bluetooth/controller/libsubsys__bluetooth__controller.a(hci_driver.c.obj)
 .text.hci_driver_send
                0x0000a380       0x5c zephyr/subsys/bluetooth/controller/libsubsys__bluetooth__controller.a(hci_driver.c.obj)
 .text.recv_thread
                0x0000a3dc       0x9c zephyr/subsys/bluetooth/controller/libsubsys__bluetooth__controller.a(hci_driver.c.obj)
 .text.prio_recv_thread
                0x0000a478       0x60 zephyr/subsys/bluetooth/controller/libsubsys__bluetooth__controller.a(hci_driver.c.obj)
 .text.hci_driver_open
                0x0000a4d8       0x88 zephyr/subsys/bluetooth/controller/libsubsys__bluetooth__controller.a(hci_driver.c.obj)
 .text.cmd_status
                0x0000a560       0x38 zephyr/subsys/bluetooth/controller/libsubsys__bluetooth__controller.a(hci.c.obj)
 .text.le_remote_feat_complete
                0x0000a598       0x68 zephyr/subsys/bluetooth/controller/libsubsys__bluetooth__controller.a(hci.c.obj)
 .text.encrypt_change
                0x0000a600       0x44 zephyr/subsys/bluetooth/controller/libsubsys__bluetooth__controller.a(hci.c.obj)
 .text.hci_cmd_complete
                0x0000a644       0x48 zephyr/subsys/bluetooth/controller/libsubsys__bluetooth__controller.a(hci.c.obj)
                0x0000a644                hci_cmd_complete
 .text.hci_vendor_cmd_handle_common
                0x0000a68c      0x234 zephyr/subsys/bluetooth/controller/libsubsys__bluetooth__controller.a(hci.c.obj)
                0x0000a68c                hci_vendor_cmd_handle_common
 .text.hci_cmd_handle
                0x0000a8c0      0x7c0 zephyr/subsys/bluetooth/controller/libsubsys__bluetooth__controller.a(hci.c.obj)
                0x0000a8c0                hci_cmd_handle
 .text.hci_acl_handle
                0x0000b080       0xb8 zephyr/subsys/bluetooth/controller/libsubsys__bluetooth__controller.a(hci.c.obj)
                0x0000b080                hci_acl_handle
 .text.hci_evt_encode
                0x0000b138      0x508 zephyr/subsys/bluetooth/controller/libsubsys__bluetooth__controller.a(hci.c.obj)
                0x0000b138                hci_evt_encode
 .text.hci_get_class
                0x0000b640       0x30 zephyr/subsys/bluetooth/controller/libsubsys__bluetooth__controller.a(hci.c.obj)
                0x0000b640                hci_get_class
 .text.hci_init
                0x0000b670       0x30 zephyr/subsys/bluetooth/controller/libsubsys__bluetooth__controller.a(hci.c.obj)
                0x0000b670                hci_init
 .text.pdu_len_cmp
                0x0000b6a0       0x3c zephyr/subsys/bluetooth/controller/libsubsys__bluetooth__controller.a(ctrl.c.obj)
 .text.packet_rx_acquired_count_get
                0x0000b6dc       0x2c zephyr/subsys/bluetooth/controller/libsubsys__bluetooth__controller.a(ctrl.c.obj)
 .text.packet_rx_reserve_get
                0x0000b708       0x24 zephyr/subsys/bluetooth/controller/libsubsys__bluetooth__controller.a(ctrl.c.obj)
 .text.packet_rx_allocate
                0x0000b72c       0x98 zephyr/subsys/bluetooth/controller/libsubsys__bluetooth__controller.a(ctrl.c.obj)
 .text.common_init
                0x0000b7c4       0xe4 zephyr/subsys/bluetooth/controller/libsubsys__bluetooth__controller.a(ctrl.c.obj)
 .text.tx_cmplt_get
                0x0000b8a8       0x94 zephyr/subsys/bluetooth/controller/libsubsys__bluetooth__controller.a(ctrl.c.obj)
 .text.connection_get
                0x0000b93c       0x2c zephyr/subsys/bluetooth/controller/libsubsys__bluetooth__controller.a(ctrl.c.obj)
 .text.role_disable
                0x0000b968      0x228 zephyr/subsys/bluetooth/controller/libsubsys__bluetooth__controller.a(ctrl.c.obj)
 .text.adv_scan_conn_configure
                0x0000bb90       0x1c zephyr/subsys/bluetooth/controller/libsubsys__bluetooth__controller.a(ctrl.c.obj)
 .text.rx_fc_lock
                0x0000bbac       0x34 zephyr/subsys/bluetooth/controller/libsubsys__bluetooth__controller.a(ctrl.c.obj)
 .text.mayfly_xtal_start
                0x0000bbe0       0x20 zephyr/subsys/bluetooth/controller/libsubsys__bluetooth__controller.a(ctrl.c.obj)
 .text.ticker_start_conn_assert
                0x0000bc00       0x14 zephyr/subsys/bluetooth/controller/libsubsys__bluetooth__controller.a(ctrl.c.obj)
 .text.ticker_stop_conn_assert
                0x0000bc14       0x14 zephyr/subsys/bluetooth/controller/libsubsys__bluetooth__controller.a(ctrl.c.obj)
 .text.ticker_stop_adv_assert
                0x0000bc28       0x30 zephyr/subsys/bluetooth/controller/libsubsys__bluetooth__controller.a(ctrl.c.obj)
 .text.ticker_update_adv_assert
                0x0000bc58       0x18 zephyr/subsys/bluetooth/controller/libsubsys__bluetooth__controller.a(ctrl.c.obj)
 .text.ticker_update_conn_assert
                0x0000bc70       0x20 zephyr/subsys/bluetooth/controller/libsubsys__bluetooth__controller.a(ctrl.c.obj)
 .text.ticker_job_disable
                0x0000bc90       0x18 zephyr/subsys/bluetooth/controller/libsubsys__bluetooth__controller.a(ctrl.c.obj)
 .text.hdr_conn_get
                0x0000bca8       0x3c zephyr/subsys/bluetooth/controller/libsubsys__bluetooth__controller.a(ctrl.c.obj)
 .text.mayfly_xtal_retain.part.15
                0x0000bce4       0x34 zephyr/subsys/bluetooth/controller/libsubsys__bluetooth__controller.a(ctrl.c.obj)
 .text.event_active
                0x0000bd18       0x1c zephyr/subsys/bluetooth/controller/libsubsys__bluetooth__controller.a(ctrl.c.obj)
 .text.event_xtal
                0x0000bd34       0x1c zephyr/subsys/bluetooth/controller/libsubsys__bluetooth__controller.a(ctrl.c.obj)
 .text.ticker_stop_adv_stop
                0x0000bd50      0x12c zephyr/subsys/bluetooth/controller/libsubsys__bluetooth__controller.a(ctrl.c.obj)
 .text.prepare_normal_set
                0x0000be7c       0x48 zephyr/subsys/bluetooth/controller/libsubsys__bluetooth__controller.a(ctrl.c.obj)
 .text.mayfly_radio_active
                0x0000bec4       0x30 zephyr/subsys/bluetooth/controller/libsubsys__bluetooth__controller.a(ctrl.c.obj)
 .text.mayfly_radio_stop
                0x0000bef4       0x34 zephyr/subsys/bluetooth/controller/libsubsys__bluetooth__controller.a(ctrl.c.obj)
 .text.pdu_node_tx_release
                0x0000bf28       0x48 zephyr/subsys/bluetooth/controller/libsubsys__bluetooth__controller.a(ctrl.c.obj)
 .text.packet_tx_enqueue
                0x0000bf70       0xa0 zephyr/subsys/bluetooth/controller/libsubsys__bluetooth__controller.a(ctrl.c.obj)
 .text.connection_release
                0x0000c010      0x114 zephyr/subsys/bluetooth/controller/libsubsys__bluetooth__controller.a(ctrl.c.obj)
 .text.adv_setup
                0x0000c124       0xd4 zephyr/subsys/bluetooth/controller/libsubsys__bluetooth__controller.a(ctrl.c.obj)
 .text.packet_rx_enqueue_commit
                0x0000c1f8       0x24 zephyr/subsys/bluetooth/controller/libsubsys__bluetooth__controller.a(ctrl.c.obj)
 .text.packet_rx_enqueue
                0x0000c21c       0x50 zephyr/subsys/bluetooth/controller/libsubsys__bluetooth__controller.a(ctrl.c.obj)
 .text.isr_rx_scan_report.isra.34
                0x0000c26c       0x74 zephyr/subsys/bluetooth/controller/libsubsys__bluetooth__controller.a(ctrl.c.obj)
 .text.adv_scan_configure.constprop.40
                0x0000c2e0       0x44 zephyr/subsys/bluetooth/controller/libsubsys__bluetooth__controller.a(ctrl.c.obj)
 .text.event_stop.constprop.41
                0x0000c324       0x1c zephyr/subsys/bluetooth/controller/libsubsys__bluetooth__controller.a(ctrl.c.obj)
 .text.event_common_prepare
                0x0000c340      0x174 zephyr/subsys/bluetooth/controller/libsubsys__bluetooth__controller.a(ctrl.c.obj)
 .text.radio_event_adv_prepare
                0x0000c4b4       0x38 zephyr/subsys/bluetooth/controller/libsubsys__bluetooth__controller.a(ctrl.c.obj)
                0x0000c4b4                radio_event_adv_prepare
 .text.event_adv_stop
                0x0000c4ec       0x2c zephyr/subsys/bluetooth/controller/libsubsys__bluetooth__controller.a(ctrl.c.obj)
                0x0000c4ec                event_adv_stop
 .text.k32src_wait
                0x0000c518       0x38 zephyr/subsys/bluetooth/controller/libsubsys__bluetooth__controller.a(ctrl.c.obj)
 .text.mayfly_xtal_stop
                0x0000c550       0x10 zephyr/subsys/bluetooth/controller/libsubsys__bluetooth__controller.a(ctrl.c.obj)
 .text.preempt_calc
                0x0000c560       0x44 zephyr/subsys/bluetooth/controller/libsubsys__bluetooth__controller.a(ctrl.c.obj)
 .text.event_adv
                0x0000c5a4       0xc4 zephyr/subsys/bluetooth/controller/libsubsys__bluetooth__controller.a(ctrl.c.obj)
 .text.event_slave
                0x0000c668      0x240 zephyr/subsys/bluetooth/controller/libsubsys__bluetooth__controller.a(ctrl.c.obj)
 .text.feature_rsp_send
                0x0000c8a8       0x84 zephyr/subsys/bluetooth/controller/libsubsys__bluetooth__controller.a(ctrl.c.obj)
 .text.reject_ext_ind_send
                0x0000c92c       0x38 zephyr/subsys/bluetooth/controller/libsubsys__bluetooth__controller.a(ctrl.c.obj)
 .text.mayfly_xtal_stop_calc
                0x0000c964      0x160 zephyr/subsys/bluetooth/controller/libsubsys__bluetooth__controller.a(ctrl.c.obj)
 .text.isr_rx_conn_pkt_ctrl
                0x0000cac4     0x11f4 zephyr/subsys/bluetooth/controller/libsubsys__bluetooth__controller.a(ctrl.c.obj)
 .text.radio_init
                0x0000dcb8      0x104 zephyr/subsys/bluetooth/controller/libsubsys__bluetooth__controller.a(ctrl.c.obj)
                0x0000dcb8                radio_init
 .text.ll_reset
                0x0000ddbc       0x9c zephyr/subsys/bluetooth/controller/libsubsys__bluetooth__controller.a(ctrl.c.obj)
                0x0000ddbc                ll_reset
 .text.radio_adv_data_get
                0x0000de58        0x8 zephyr/subsys/bluetooth/controller/libsubsys__bluetooth__controller.a(ctrl.c.obj)
                0x0000de58                radio_adv_data_get
 .text.radio_scan_data_get
                0x0000de60        0x8 zephyr/subsys/bluetooth/controller/libsubsys__bluetooth__controller.a(ctrl.c.obj)
                0x0000de60                radio_scan_data_get
 .text.ll_adv_is_enabled
                0x0000de68       0x10 zephyr/subsys/bluetooth/controller/libsubsys__bluetooth__controller.a(ctrl.c.obj)
                0x0000de68                ll_adv_is_enabled
 .text.radio_adv_filter_pol_get
                0x0000de78       0x18 zephyr/subsys/bluetooth/controller/libsubsys__bluetooth__controller.a(ctrl.c.obj)
                0x0000de78                radio_adv_filter_pol_get
 .text.ll_scan_is_enabled
                0x0000de90       0x2c zephyr/subsys/bluetooth/controller/libsubsys__bluetooth__controller.a(ctrl.c.obj)
                0x0000de90                ll_scan_is_enabled
 .text.radio_scan_filter_pol_get
                0x0000debc       0x1c zephyr/subsys/bluetooth/controller/libsubsys__bluetooth__controller.a(ctrl.c.obj)
                0x0000debc                radio_scan_filter_pol_get
 .text.ll_length_default_get
                0x0000ded8       0x14 zephyr/subsys/bluetooth/controller/libsubsys__bluetooth__controller.a(ctrl.c.obj)
                0x0000ded8                ll_length_default_get
 .text.ll_length_default_set
                0x0000deec       0x14 zephyr/subsys/bluetooth/controller/libsubsys__bluetooth__controller.a(ctrl.c.obj)
                0x0000deec                ll_length_default_set
 .text.ll_phy_default_set
                0x0000df00       0x14 zephyr/subsys/bluetooth/controller/libsubsys__bluetooth__controller.a(ctrl.c.obj)
                0x0000df00                ll_phy_default_set
 .text.ll_rx_get
                0x0000df14       0x70 zephyr/subsys/bluetooth/controller/libsubsys__bluetooth__controller.a(ctrl.c.obj)
                0x0000df14                ll_rx_get
 .text.ll_rx_mem_release
                0x0000df84       0x6c zephyr/subsys/bluetooth/controller/libsubsys__bluetooth__controller.a(ctrl.c.obj)
                0x0000df84                ll_rx_mem_release
 .text.radio_rx_fc_set
                0x0000dff0       0xa4 zephyr/subsys/bluetooth/controller/libsubsys__bluetooth__controller.a(ctrl.c.obj)
                0x0000dff0                radio_rx_fc_set
 .text.ll_tx_mem_acquire
                0x0000e094        0xc zephyr/subsys/bluetooth/controller/libsubsys__bluetooth__controller.a(ctrl.c.obj)
                0x0000e094                ll_tx_mem_acquire
 .text.ll_tx_mem_release
                0x0000e0a0        0xc zephyr/subsys/bluetooth/controller/libsubsys__bluetooth__controller.a(ctrl.c.obj)
                0x0000e0a0                ll_tx_mem_release
 .text.ll_tx_mem_enqueue
                0x0000e0ac       0xc0 zephyr/subsys/bluetooth/controller/libsubsys__bluetooth__controller.a(ctrl.c.obj)
                0x0000e0ac                ll_tx_mem_enqueue
 .text.radio_adv_disable
                0x0000e16c       0x58 zephyr/subsys/bluetooth/controller/libsubsys__bluetooth__controller.a(ctrl.c.obj)
                0x0000e16c                radio_adv_disable
 .text.ll_rx_dequeue
                0x0000e1c4       0xe4 zephyr/subsys/bluetooth/controller/libsubsys__bluetooth__controller.a(ctrl.c.obj)
                0x0000e1c4                ll_rx_dequeue
 .text.rtc0_nrf5_isr
                0x0000e2a8       0x24 zephyr/subsys/bluetooth/controller/libsubsys__bluetooth__controller.a(ll.c.obj)
 .text.radio_event_callback
                0x0000e2cc        0xc zephyr/subsys/bluetooth/controller/libsubsys__bluetooth__controller.a(ll.c.obj)
                0x0000e2cc                radio_event_callback
 .text.ll_init  0x0000e2d8      0x110 zephyr/subsys/bluetooth/controller/libsubsys__bluetooth__controller.a(ll.c.obj)
                0x0000e2d8                ll_init
 .text.ll_adv_set_get
                0x0000e3e8        0x8 zephyr/subsys/bluetooth/controller/libsubsys__bluetooth__controller.a(ll_adv.c.obj)
                0x0000e3e8                ll_adv_set_get
 .text.ll_adv_params_set
                0x0000e3f0      0x288 zephyr/subsys/bluetooth/controller/libsubsys__bluetooth__controller.a(ll_adv.c.obj)
                0x0000e3f0                ll_adv_params_set
 .text.ll_adv_enable
                0x0000e678      0x100 zephyr/subsys/bluetooth/controller/libsubsys__bluetooth__controller.a(ll_adv.c.obj)
                0x0000e678                ll_adv_enable
 .text.wl_find  0x0000e778       0x68 zephyr/subsys/bluetooth/controller/libsubsys__bluetooth__controller.a(ll_filter.c.obj)
 .text.filter_rl_update
                0x0000e7e0       0x50 zephyr/subsys/bluetooth/controller/libsubsys__bluetooth__controller.a(ll_filter.c.obj)
 .text.filter_wl_update
                0x0000e830       0x7c zephyr/subsys/bluetooth/controller/libsubsys__bluetooth__controller.a(ll_filter.c.obj)
 .text.ctrl_lrpa_get
                0x0000e8ac       0x28 zephyr/subsys/bluetooth/controller/libsubsys__bluetooth__controller.a(ll_filter.c.obj)
                0x0000e8ac                ctrl_lrpa_get
 .text.ctrl_irks_get
                0x0000e8d4       0x14 zephyr/subsys/bluetooth/controller/libsubsys__bluetooth__controller.a(ll_filter.c.obj)
                0x0000e8d4                ctrl_irks_get
 .text.ctrl_rl_idx
                0x0000e8e8       0x40 zephyr/subsys/bluetooth/controller/libsubsys__bluetooth__controller.a(ll_filter.c.obj)
                0x0000e8e8                ctrl_rl_idx
 .text.ctrl_rl_irk_idx
                0x0000e928       0x38 zephyr/subsys/bluetooth/controller/libsubsys__bluetooth__controller.a(ll_filter.c.obj)
                0x0000e928                ctrl_rl_irk_idx
 .text.ctrl_irk_whitelisted
                0x0000e960       0x2c zephyr/subsys/bluetooth/controller/libsubsys__bluetooth__controller.a(ll_filter.c.obj)
                0x0000e960                ctrl_irk_whitelisted
 .text.ctrl_filter_get
                0x0000e98c       0x18 zephyr/subsys/bluetooth/controller/libsubsys__bluetooth__controller.a(ll_filter.c.obj)
                0x0000e98c                ctrl_filter_get
 .text.ll_wl_clear
                0x0000e9a4       0x78 zephyr/subsys/bluetooth/controller/libsubsys__bluetooth__controller.a(ll_filter.c.obj)
                0x0000e9a4                ll_wl_clear
 .text.ll_wl_remove
                0x0000ea1c       0x70 zephyr/subsys/bluetooth/controller/libsubsys__bluetooth__controller.a(ll_filter.c.obj)
                0x0000ea1c                ll_wl_remove
 .text.ll_filters_adv_update
                0x0000ea8c       0x44 zephyr/subsys/bluetooth/controller/libsubsys__bluetooth__controller.a(ll_filter.c.obj)
                0x0000ea8c                ll_filters_adv_update
 .text.ll_rl_find
                0x0000ead0       0x6c zephyr/subsys/bluetooth/controller/libsubsys__bluetooth__controller.a(ll_filter.c.obj)
                0x0000ead0                ll_rl_find
 .text.ll_wl_add
                0x0000eb3c       0xb4 zephyr/subsys/bluetooth/controller/libsubsys__bluetooth__controller.a(ll_filter.c.obj)
                0x0000eb3c                ll_wl_add
 .text.ctrl_rl_idx_allowed
                0x0000ebf0       0x3c zephyr/subsys/bluetooth/controller/libsubsys__bluetooth__controller.a(ll_filter.c.obj)
                0x0000ebf0                ctrl_rl_idx_allowed
 .text.ll_rl_id_addr_get
                0x0000ec2c       0x40 zephyr/subsys/bluetooth/controller/libsubsys__bluetooth__controller.a(ll_filter.c.obj)
                0x0000ec2c                ll_rl_id_addr_get
 .text.ctrl_rl_addr_allowed
                0x0000ec6c       0x78 zephyr/subsys/bluetooth/controller/libsubsys__bluetooth__controller.a(ll_filter.c.obj)
                0x0000ec6c                ctrl_rl_addr_allowed
 .text.ctrl_rl_addr_resolve
                0x0000ece4       0x40 zephyr/subsys/bluetooth/controller/libsubsys__bluetooth__controller.a(ll_filter.c.obj)
                0x0000ece4                ctrl_rl_addr_resolve
 .text.ctrl_rl_enabled
                0x0000ed24       0x10 zephyr/subsys/bluetooth/controller/libsubsys__bluetooth__controller.a(ll_filter.c.obj)
                0x0000ed24                ctrl_rl_enabled
 .text.ll_rl_pdu_adv_update
                0x0000ed34       0xac zephyr/subsys/bluetooth/controller/libsubsys__bluetooth__controller.a(ll_filter.c.obj)
                0x0000ed34                ll_rl_pdu_adv_update
 .text.ll_rl_rpa_update
                0x0000ede0      0x1b4 zephyr/subsys/bluetooth/controller/libsubsys__bluetooth__controller.a(ll_filter.c.obj)
                0x0000ede0                ll_rl_rpa_update
 .text.rpa_timeout
                0x0000ef94       0x24 zephyr/subsys/bluetooth/controller/libsubsys__bluetooth__controller.a(ll_filter.c.obj)
 .text.ll_adv_scan_state_cb
                0x0000efb8       0x20 zephyr/subsys/bluetooth/controller/libsubsys__bluetooth__controller.a(ll_filter.c.obj)
                0x0000efb8                ll_adv_scan_state_cb
 .text.ll_rl_clear
                0x0000efd8       0x7c zephyr/subsys/bluetooth/controller/libsubsys__bluetooth__controller.a(ll_filter.c.obj)
                0x0000efd8                ll_rl_clear
 .text.ll_rl_add
                0x0000f054      0x140 zephyr/subsys/bluetooth/controller/libsubsys__bluetooth__controller.a(ll_filter.c.obj)
                0x0000f054                ll_rl_add
 .text.ll_rl_remove
                0x0000f194       0xd4 zephyr/subsys/bluetooth/controller/libsubsys__bluetooth__controller.a(ll_filter.c.obj)
                0x0000f194                ll_rl_remove
 .text.ll_rl_crpa_set
                0x0000f268       0x44 zephyr/subsys/bluetooth/controller/libsubsys__bluetooth__controller.a(ll_filter.c.obj)
                0x0000f268                ll_rl_crpa_set
 .text.ll_rl_crpa_get
                0x0000f2ac       0x40 zephyr/subsys/bluetooth/controller/libsubsys__bluetooth__controller.a(ll_filter.c.obj)
                0x0000f2ac                ll_rl_crpa_get
 .text.ll_rl_lrpa_get
                0x0000f2ec       0x30 zephyr/subsys/bluetooth/controller/libsubsys__bluetooth__controller.a(ll_filter.c.obj)
                0x0000f2ec                ll_rl_lrpa_get
 .text.ll_rl_enable
                0x0000f31c       0x2c zephyr/subsys/bluetooth/controller/libsubsys__bluetooth__controller.a(ll_filter.c.obj)
                0x0000f31c                ll_rl_enable
 .text.ll_rl_timeout_set
                0x0000f348       0x10 zephyr/subsys/bluetooth/controller/libsubsys__bluetooth__controller.a(ll_filter.c.obj)
                0x0000f348                ll_rl_timeout_set
 .text.ll_priv_mode_set
                0x0000f358       0x54 zephyr/subsys/bluetooth/controller/libsubsys__bluetooth__controller.a(ll_filter.c.obj)
                0x0000f358                ll_priv_mode_set
 .text.ll_filter_reset
                0x0000f3ac      0x110 zephyr/subsys/bluetooth/controller/libsubsys__bluetooth__controller.a(ll_filter.c.obj)
                0x0000f3ac                ll_filter_reset
 .text.cntr_init
                0x0000f4bc       0x1c zephyr/subsys/bluetooth/controller/libsubsys__bluetooth__controller.a(cntr.c.obj)
                0x0000f4bc                cntr_init
 .text.cntr_start
                0x0000f4d8       0x1c zephyr/subsys/bluetooth/controller/libsubsys__bluetooth__controller.a(cntr.c.obj)
                0x0000f4d8                cntr_start
 .text.cntr_stop
                0x0000f4f4       0x30 zephyr/subsys/bluetooth/controller/libsubsys__bluetooth__controller.a(cntr.c.obj)
                0x0000f4f4                cntr_stop
 .text.cntr_cnt_get
                0x0000f524        0xc zephyr/subsys/bluetooth/controller/libsubsys__bluetooth__controller.a(cntr.c.obj)
                0x0000f524                cntr_cnt_get
 .text.cntr_cmp_set
                0x0000f530       0x10 zephyr/subsys/bluetooth/controller/libsubsys__bluetooth__controller.a(cntr.c.obj)
                0x0000f530                cntr_cmp_set
 .text.do_ecb   0x0000f540       0x58 zephyr/subsys/bluetooth/controller/libsubsys__bluetooth__controller.a(ecb.c.obj)
 .text.hal_radio_enable_on_tick_ppi_config_and_enable
                0x0000f598       0x28 zephyr/subsys/bluetooth/controller/libsubsys__bluetooth__controller.a(radio.c.obj)
 .text.sw_switch.isra.10
                0x0000f5c0       0xcc zephyr/subsys/bluetooth/controller/libsubsys__bluetooth__controller.a(radio.c.obj)
 .text.isr_radio
                0x0000f68c       0x20 zephyr/subsys/bluetooth/controller/libsubsys__bluetooth__controller.a(radio.c.obj)
                0x0000f68c                isr_radio
 .text.radio_isr_set
                0x0000f6ac       0x40 zephyr/subsys/bluetooth/controller/libsubsys__bluetooth__controller.a(radio.c.obj)
                0x0000f6ac                radio_isr_set
 .text.radio_reset
                0x0000f6ec       0x1c zephyr/subsys/bluetooth/controller/libsubsys__bluetooth__controller.a(radio.c.obj)
                0x0000f6ec                radio_reset
 .text.radio_phy_set
                0x0000f708       0x20 zephyr/subsys/bluetooth/controller/libsubsys__bluetooth__controller.a(radio.c.obj)
                0x0000f708                radio_phy_set
 .text.radio_tx_power_set
                0x0000f728        0xc zephyr/subsys/bluetooth/controller/libsubsys__bluetooth__controller.a(radio.c.obj)
                0x0000f728                radio_tx_power_set
 .text.radio_freq_chan_set
                0x0000f734        0xc zephyr/subsys/bluetooth/controller/libsubsys__bluetooth__controller.a(radio.c.obj)
                0x0000f734                radio_freq_chan_set
 .text.radio_whiten_iv_set
                0x0000f740       0x24 zephyr/subsys/bluetooth/controller/libsubsys__bluetooth__controller.a(radio.c.obj)
                0x0000f740                radio_whiten_iv_set
 .text.radio_aa_set
                0x0000f764       0x30 zephyr/subsys/bluetooth/controller/libsubsys__bluetooth__controller.a(radio.c.obj)
                0x0000f764                radio_aa_set
 .text.radio_pkt_configure
                0x0000f794       0x5c zephyr/subsys/bluetooth/controller/libsubsys__bluetooth__controller.a(radio.c.obj)
                0x0000f794                radio_pkt_configure
 .text.radio_pkt_rx_set
                0x0000f7f0        0xc zephyr/subsys/bluetooth/controller/libsubsys__bluetooth__controller.a(radio.c.obj)
                0x0000f7f0                radio_pkt_rx_set
 .text.radio_pkt_tx_set
                0x0000f7fc        0xc zephyr/subsys/bluetooth/controller/libsubsys__bluetooth__controller.a(radio.c.obj)
                0x0000f7fc                radio_pkt_tx_set
 .text.radio_rx_enable
                0x0000f808        0xc zephyr/subsys/bluetooth/controller/libsubsys__bluetooth__controller.a(radio.c.obj)
                0x0000f808                radio_rx_enable
 .text.radio_tx_enable
                0x0000f814        0xc zephyr/subsys/bluetooth/controller/libsubsys__bluetooth__controller.a(radio.c.obj)
                0x0000f814                radio_tx_enable
 .text.radio_disable
                0x0000f820       0x24 zephyr/subsys/bluetooth/controller/libsubsys__bluetooth__controller.a(radio.c.obj)
                0x0000f820                radio_disable
 .text.radio_status_reset
                0x0000f844       0x18 zephyr/subsys/bluetooth/controller/libsubsys__bluetooth__controller.a(radio.c.obj)
                0x0000f844                radio_status_reset
 .text.radio_is_ready
                0x0000f85c       0x14 zephyr/subsys/bluetooth/controller/libsubsys__bluetooth__controller.a(radio.c.obj)
                0x0000f85c                radio_is_ready
 .text.radio_is_done
                0x0000f870       0x14 zephyr/subsys/bluetooth/controller/libsubsys__bluetooth__controller.a(radio.c.obj)
                0x0000f870                radio_is_done
 .text.radio_is_idle
                0x0000f884       0x14 zephyr/subsys/bluetooth/controller/libsubsys__bluetooth__controller.a(radio.c.obj)
                0x0000f884                radio_is_idle
 .text.radio_crc_configure
                0x0000f898       0x18 zephyr/subsys/bluetooth/controller/libsubsys__bluetooth__controller.a(radio.c.obj)
                0x0000f898                radio_crc_configure
 .text.radio_crc_is_valid
                0x0000f8b0       0x14 zephyr/subsys/bluetooth/controller/libsubsys__bluetooth__controller.a(radio.c.obj)
                0x0000f8b0                radio_crc_is_valid
 .text.radio_pkt_empty_get
                0x0000f8c4        0x8 zephyr/subsys/bluetooth/controller/libsubsys__bluetooth__controller.a(radio.c.obj)
                0x0000f8c4                radio_pkt_empty_get
 .text.radio_pkt_scratch_get
                0x0000f8cc        0x8 zephyr/subsys/bluetooth/controller/libsubsys__bluetooth__controller.a(radio.c.obj)
                0x0000f8cc                radio_pkt_scratch_get
 .text.radio_switch_complete_and_rx
                0x0000f8d4       0x18 zephyr/subsys/bluetooth/controller/libsubsys__bluetooth__controller.a(radio.c.obj)
                0x0000f8d4                radio_switch_complete_and_rx
 .text.radio_switch_complete_and_tx
                0x0000f8ec       0x14 zephyr/subsys/bluetooth/controller/libsubsys__bluetooth__controller.a(radio.c.obj)
                0x0000f8ec                radio_switch_complete_and_tx
 .text.radio_switch_complete_and_disable
                0x0000f900       0x1c zephyr/subsys/bluetooth/controller/libsubsys__bluetooth__controller.a(radio.c.obj)
                0x0000f900                radio_switch_complete_and_disable
 .text.radio_rssi_measure
                0x0000f91c       0x14 zephyr/subsys/bluetooth/controller/libsubsys__bluetooth__controller.a(radio.c.obj)
                0x0000f91c                radio_rssi_measure
 .text.radio_rssi_get
                0x0000f930        0xc zephyr/subsys/bluetooth/controller/libsubsys__bluetooth__controller.a(radio.c.obj)
                0x0000f930                radio_rssi_get
 .text.radio_rssi_status_reset
                0x0000f93c       0x10 zephyr/subsys/bluetooth/controller/libsubsys__bluetooth__controller.a(radio.c.obj)
                0x0000f93c                radio_rssi_status_reset
 .text.radio_rssi_is_ready
                0x0000f94c       0x14 zephyr/subsys/bluetooth/controller/libsubsys__bluetooth__controller.a(radio.c.obj)
                0x0000f94c                radio_rssi_is_ready
 .text.radio_filter_configure
                0x0000f960       0x34 zephyr/subsys/bluetooth/controller/libsubsys__bluetooth__controller.a(radio.c.obj)
                0x0000f960                radio_filter_configure
 .text.radio_filter_disable
                0x0000f994       0x14 zephyr/subsys/bluetooth/controller/libsubsys__bluetooth__controller.a(radio.c.obj)
                0x0000f994                radio_filter_disable
 .text.radio_filter_status_reset
                0x0000f9a8       0x10 zephyr/subsys/bluetooth/controller/libsubsys__bluetooth__controller.a(radio.c.obj)
                0x0000f9a8                radio_filter_status_reset
 .text.radio_filter_has_match
                0x0000f9b8       0x14 zephyr/subsys/bluetooth/controller/libsubsys__bluetooth__controller.a(radio.c.obj)
                0x0000f9b8                radio_filter_has_match
 .text.radio_filter_match_get
                0x0000f9cc        0xc zephyr/subsys/bluetooth/controller/libsubsys__bluetooth__controller.a(radio.c.obj)
                0x0000f9cc                radio_filter_match_get
 .text.radio_bc_configure
                0x0000f9d8       0x18 zephyr/subsys/bluetooth/controller/libsubsys__bluetooth__controller.a(radio.c.obj)
                0x0000f9d8                radio_bc_configure
 .text.radio_tmr_status_reset
                0x0000f9f0       0x20 zephyr/subsys/bluetooth/controller/libsubsys__bluetooth__controller.a(radio.c.obj)
                0x0000f9f0                radio_tmr_status_reset
 .text.radio_tmr_tifs_set
                0x0000fa10       0x18 zephyr/subsys/bluetooth/controller/libsubsys__bluetooth__controller.a(radio.c.obj)
                0x0000fa10                radio_tmr_tifs_set
 .text.radio_tmr_start
                0x0000fa28       0xf0 zephyr/subsys/bluetooth/controller/libsubsys__bluetooth__controller.a(radio.c.obj)
                0x0000fa28                radio_tmr_start
 .text.radio_tmr_stop
                0x0000fb18       0x18 zephyr/subsys/bluetooth/controller/libsubsys__bluetooth__controller.a(radio.c.obj)
                0x0000fb18                radio_tmr_stop
 .text.radio_tmr_hcto_configure
                0x0000fb30       0x18 zephyr/subsys/bluetooth/controller/libsubsys__bluetooth__controller.a(radio.c.obj)
                0x0000fb30                radio_tmr_hcto_configure
 .text.radio_tmr_aa_capture
                0x0000fb48       0x28 zephyr/subsys/bluetooth/controller/libsubsys__bluetooth__controller.a(radio.c.obj)
                0x0000fb48                radio_tmr_aa_capture
 .text.radio_tmr_aa_get
                0x0000fb70        0xc zephyr/subsys/bluetooth/controller/libsubsys__bluetooth__controller.a(radio.c.obj)
                0x0000fb70                radio_tmr_aa_get
 .text.radio_tmr_aa_save
                0x0000fb7c        0xc zephyr/subsys/bluetooth/controller/libsubsys__bluetooth__controller.a(radio.c.obj)
                0x0000fb7c                radio_tmr_aa_save
 .text.radio_tmr_aa_restore
                0x0000fb88        0xc zephyr/subsys/bluetooth/controller/libsubsys__bluetooth__controller.a(radio.c.obj)
                0x0000fb88                radio_tmr_aa_restore
 .text.radio_tmr_ready_get
                0x0000fb94        0xc zephyr/subsys/bluetooth/controller/libsubsys__bluetooth__controller.a(radio.c.obj)
                0x0000fb94                radio_tmr_ready_get
 .text.radio_tmr_end_capture
                0x0000fba0       0x10 zephyr/subsys/bluetooth/controller/libsubsys__bluetooth__controller.a(radio.c.obj)
                0x0000fba0                radio_tmr_end_capture
 .text.radio_tmr_end_get
                0x0000fbb0        0xc zephyr/subsys/bluetooth/controller/libsubsys__bluetooth__controller.a(radio.c.obj)
                0x0000fbb0                radio_tmr_end_get
 .text.radio_tmr_tifs_base_get
                0x0000fbbc        0xc zephyr/subsys/bluetooth/controller/libsubsys__bluetooth__controller.a(radio.c.obj)
                0x0000fbbc                radio_tmr_tifs_base_get
 .text.radio_ccm_rx_pkt_set
                0x0000fbc8       0x68 zephyr/subsys/bluetooth/controller/libsubsys__bluetooth__controller.a(radio.c.obj)
                0x0000fbc8                radio_ccm_rx_pkt_set
 .text.radio_ccm_tx_pkt_set
                0x0000fc30       0x4c zephyr/subsys/bluetooth/controller/libsubsys__bluetooth__controller.a(radio.c.obj)
                0x0000fc30                radio_ccm_tx_pkt_set
 .text.radio_ccm_is_done
                0x0000fc7c       0x3c zephyr/subsys/bluetooth/controller/libsubsys__bluetooth__controller.a(radio.c.obj)
                0x0000fc7c                radio_ccm_is_done
 .text.radio_ccm_mic_is_valid
                0x0000fcb8       0x14 zephyr/subsys/bluetooth/controller/libsubsys__bluetooth__controller.a(radio.c.obj)
                0x0000fcb8                radio_ccm_mic_is_valid
 .text.radio_ar_configure
                0x0000fccc       0x58 zephyr/subsys/bluetooth/controller/libsubsys__bluetooth__controller.a(radio.c.obj)
                0x0000fccc                radio_ar_configure
 .text.radio_ar_match_get
                0x0000fd24        0xc zephyr/subsys/bluetooth/controller/libsubsys__bluetooth__controller.a(radio.c.obj)
                0x0000fd24                radio_ar_match_get
 .text.radio_ar_status_reset
                0x0000fd30       0x18 zephyr/subsys/bluetooth/controller/libsubsys__bluetooth__controller.a(radio.c.obj)
                0x0000fd30                radio_ar_status_reset
 .text.radio_ar_has_match
                0x0000fd48       0x28 zephyr/subsys/bluetooth/controller/libsubsys__bluetooth__controller.a(radio.c.obj)
                0x0000fd48                radio_ar_has_match
 .text.mayfly_pend
                0x0000fd70       0x28 zephyr/subsys/bluetooth/controller/libsubsys__bluetooth__controller.a(mayfly.c.obj)
                0x0000fd70                mayfly_pend
 .text.hal_ticker_instance0_caller_id_get
                0x0000fd98       0x20 zephyr/subsys/bluetooth/controller/libsubsys__bluetooth__controller.a(ticker.c.obj)
                0x0000fd98                hal_ticker_instance0_caller_id_get
 .text.hal_ticker_instance0_sched
                0x0000fdb8       0x78 zephyr/subsys/bluetooth/controller/libsubsys__bluetooth__controller.a(ticker.c.obj)
                0x0000fdb8                hal_ticker_instance0_sched
 .text.net_buf_pool_get
                0x0000fe30        0xc zephyr/subsys/net/libsubsys__net.a(buf.c.obj)
                0x0000fe30                net_buf_pool_get
 .text.net_buf_id
                0x0000fe3c       0x1c zephyr/subsys/net/libsubsys__net.a(buf.c.obj)
                0x0000fe3c                net_buf_id
 .text.fixed_data_alloc
                0x0000fe58       0x2c zephyr/subsys/net/libsubsys__net.a(buf.c.obj)
 .text.net_buf_alloc_len
                0x0000fe84       0xe4 zephyr/subsys/net/libsubsys__net.a(buf.c.obj)
                0x0000fe84                net_buf_alloc_len
 .text.net_buf_unref
                0x0000ff68       0x5c zephyr/subsys/net/libsubsys__net.a(buf.c.obj)
                0x0000ff68                net_buf_unref
 .text.gpio_nrfx_init
                0x0000ffc4       0x30 zephyr/drivers/gpio/libdrivers__gpio.a(gpio_nrfx.c.obj)
 .text.gpiote_event_handler
                0x0000fff4      0x13c zephyr/drivers/gpio/libdrivers__gpio.a(gpio_nrfx.c.obj)
 .text.gpiote_pin_int_cfg
                0x00010130      0x144 zephyr/drivers/gpio/libdrivers__gpio.a(gpio_nrfx.c.obj)
 .text.pwm_nrfx_get_cycles_per_sec
                0x00010274       0x10 zephyr/drivers/pwm/libdrivers__pwm.a(pwm_nrfx.c.obj)
 .text.pwm_nrfx_init
                0x00010284       0x24 zephyr/drivers/pwm/libdrivers__pwm.a(pwm_nrfx.c.obj)
 .text.uarte_nrfx_configure
                0x000102a8      0x160 zephyr/drivers/serial/libdrivers__serial.a(uart_nrfx_uarte.c.obj)
 .text.rng_pool_get
                0x00010408       0x8c zephyr/drivers/entropy/libdrivers__entropy.a(entropy_nrf5.c.obj)
 .text.entropy_nrf5_get_entropy
                0x00010494       0x50 zephyr/drivers/entropy/libdrivers__entropy.a(entropy_nrf5.c.obj)
 .text.random_byte_get
                0x000104e4       0x44 zephyr/drivers/entropy/libdrivers__entropy.a(entropy_nrf5.c.obj)
 .text.entropy_nrf5_get_entropy_isr
                0x00010528       0xa0 zephyr/drivers/entropy/libdrivers__entropy.a(entropy_nrf5.c.obj)
 .text.entropy_nrf5_init
                0x000105c8       0x84 zephyr/drivers/entropy/libdrivers__entropy.a(entropy_nrf5.c.obj)
 .text.isr      0x0001064c       0x74 zephyr/drivers/entropy/libdrivers__entropy.a(entropy_nrf5.c.obj)
 .text.button_pressed
                0x000106c0       0x6c zephyr/modules/nrf/lib/dk_buttons_and_leds/lib..__nrf__lib__dk_buttons_and_leds.a(dk_buttons_and_leds.c.obj)
 .text.buttons_scan_fn
                0x0001072c       0xf4 zephyr/modules/nrf/lib/dk_buttons_and_leds/lib..__nrf__lib__dk_buttons_and_leds.a(dk_buttons_and_leds.c.obj)
 .text.dk_read_buttons
                0x00010820       0x28 zephyr/modules/nrf/lib/dk_buttons_and_leds/lib..__nrf__lib__dk_buttons_and_leds.a(dk_buttons_and_leds.c.obj)
                0x00010820                dk_read_buttons
 .text.dk_buttons_init
                0x00010848      0x120 zephyr/modules/nrf/lib/dk_buttons_and_leds/lib..__nrf__lib__dk_buttons_and_leds.a(dk_buttons_and_leds.c.obj)
                0x00010848                dk_buttons_init
 .text.z_sys_device_do_config_level
                0x00010968       0x2c zephyr/kernel/libkernel.a(device.c.obj)
                0x00010968                z_sys_device_do_config_level
 .text.z_impl_device_get_binding
                0x00010994       0x4c zephyr/kernel/libkernel.a(device.c.obj)
                0x00010994                z_impl_device_get_binding
 .text.z_fatal_print
                0x000109e0       0x34 zephyr/kernel/libkernel.a(fatal.c.obj)
                0x000109e0                z_fatal_print
 .text.k_sys_fatal_error_handler
                0x00010a14       0x14 zephyr/kernel/libkernel.a(fatal.c.obj)
                0x00010a14                k_sys_fatal_error_handler
 .text.z_fatal_error
                0x00010a28       0x68 zephyr/kernel/libkernel.a(fatal.c.obj)
                0x00010a28                z_fatal_error
 .text.idle     0x00010a90       0x34 zephyr/kernel/libkernel.a(idle.c.obj)
                0x00010a90                idle
 .text.z_bss_zero
                0x00010ac4       0x14 zephyr/kernel/libkernel.a(init.c.obj)
                0x00010ac4                z_bss_zero
 .text.z_data_copy
                0x00010ad8       0x34 zephyr/kernel/libkernel.a(init.c.obj)
                0x00010ad8                z_data_copy
 .text.bg_thread_main
                0x00010b0c       0x30 zephyr/kernel/libkernel.a(init.c.obj)
 .text.z_cstart
                0x00010b3c      0x134 zephyr/kernel/libkernel.a(init.c.obj)
                0x00010b3c                z_cstart
 .text.init_static_pools
                0x00010c70       0x28 zephyr/kernel/libkernel.a(mempool.c.obj)
                0x00010c70                init_static_pools
 .text.k_mem_pool_alloc
                0x00010c98       0xb4 zephyr/kernel/libkernel.a(mempool.c.obj)
                0x00010c98                k_mem_pool_alloc
 .text.k_mem_pool_free_id
                0x00010d4c       0x58 zephyr/kernel/libkernel.a(mempool.c.obj)
                0x00010d4c                k_mem_pool_free_id
 .text.k_malloc
                0x00010da4        0xc zephyr/kernel/libkernel.a(mempool.c.obj)
                0x00010da4                k_malloc
 .text.z_thread_malloc
                0x00010db0       0x14 zephyr/kernel/libkernel.a(mempool.c.obj)
                0x00010db0                z_thread_malloc
 .text.resched.part.15
                0x00010dc4       0x24 zephyr/kernel/libkernel.a(sched.c.obj)
 .text.reset_time_slice
                0x00010de8       0x2c zephyr/kernel/libkernel.a(sched.c.obj)
 .text.k_sched_time_slice_set
                0x00010e14       0x58 zephyr/kernel/libkernel.a(sched.c.obj)
                0x00010e14                k_sched_time_slice_set
 .text.k_sched_lock
                0x00010e6c       0x28 zephyr/kernel/libkernel.a(sched.c.obj)
                0x00010e6c                k_sched_lock
 .text.z_priq_dumb_remove
                0x00010e94       0x2c zephyr/kernel/libkernel.a(sched.c.obj)
                0x00010e94                z_priq_dumb_remove
 .text.update_cache
                0x00010ec0       0x3c zephyr/kernel/libkernel.a(sched.c.obj)
 .text.k_sched_unlock
                0x00010efc       0x38 zephyr/kernel/libkernel.a(sched.c.obj)
                0x00010efc                k_sched_unlock
 .text.z_add_thread_to_ready_q
                0x00010f34       0x70 zephyr/kernel/libkernel.a(sched.c.obj)
                0x00010f34                z_add_thread_to_ready_q
 .text.z_move_thread_to_end_of_prio_q
                0x00010fa4       0x80 zephyr/kernel/libkernel.a(sched.c.obj)
                0x00010fa4                z_move_thread_to_end_of_prio_q
 .text.z_time_slice
                0x00011024       0x70 zephyr/kernel/libkernel.a(sched.c.obj)
                0x00011024                z_time_slice
 .text.z_remove_thread_from_ready_q
                0x00011094       0x4c zephyr/kernel/libkernel.a(sched.c.obj)
                0x00011094                z_remove_thread_from_ready_q
 .text.pend     0x000110e0       0x84 zephyr/kernel/libkernel.a(sched.c.obj)
 .text.z_pend_curr_irqlock
                0x00011164       0x48 zephyr/kernel/libkernel.a(sched.c.obj)
                0x00011164                z_pend_curr_irqlock
 .text.z_pend_curr
                0x000111ac       0x28 zephyr/kernel/libkernel.a(sched.c.obj)
                0x000111ac                z_pend_curr
 .text.z_tick_sleep.part.18
                0x000111d4       0x5c zephyr/kernel/libkernel.a(sched.c.obj)
 .text.z_sched_init
                0x00011230       0x18 zephyr/kernel/libkernel.a(sched.c.obj)
                0x00011230                z_sched_init
 .text.z_impl_k_yield
                0x00011248       0x94 zephyr/kernel/libkernel.a(sched.c.obj)
                0x00011248                z_impl_k_yield
 .text.z_impl_k_current_get
                0x000112dc        0xc zephyr/kernel/libkernel.a(sched.c.obj)
                0x000112dc                z_impl_k_current_get
 .text.z_impl_k_sem_give
                0x000112e8       0x58 zephyr/kernel/libkernel.a(sem.c.obj)
                0x000112e8                z_impl_k_sem_give
 .text.z_impl_k_sem_take
                0x00011340       0x48 zephyr/kernel/libkernel.a(sem.c.obj)
                0x00011340                z_impl_k_sem_take
 .text.k_sys_work_q_init
                0x00011388       0x30 zephyr/kernel/libkernel.a(system_work_q.c.obj)
 .text.z_impl_k_thread_start
                0x000113b8       0x48 zephyr/kernel/libkernel.a(thread.c.obj)
                0x000113b8                z_impl_k_thread_start
 .text.z_setup_new_thread
                0x00011400       0x34 zephyr/kernel/libkernel.a(thread.c.obj)
                0x00011400                z_setup_new_thread
 .text.z_impl_k_thread_create
                0x00011434       0x60 zephyr/kernel/libkernel.a(thread.c.obj)
                0x00011434                z_impl_k_thread_create
 .text.z_init_static_threads
                0x00011494       0xb4 zephyr/kernel/libkernel.a(thread.c.obj)
                0x00011494                z_init_static_threads
 .text.k_work_q_start
                0x00011548       0x48 zephyr/kernel/libkernel.a(work_q.c.obj)
                0x00011548                k_work_q_start
 .text.k_delayed_work_submit_to_queue
                0x00011590       0x88 zephyr/kernel/libkernel.a(work_q.c.obj)
                0x00011590                k_delayed_work_submit_to_queue
 .text.elapsed  0x00011618       0x14 zephyr/kernel/libkernel.a(timeout.c.obj)
 .text.remove_timeout
                0x0001162c       0x2c zephyr/kernel/libkernel.a(timeout.c.obj)
 .text.next_timeout
                0x00011658       0x38 zephyr/kernel/libkernel.a(timeout.c.obj)
 .text.z_add_timeout
                0x00011690       0x88 zephyr/kernel/libkernel.a(timeout.c.obj)
                0x00011690                z_add_timeout
 .text.z_clock_announce
                0x00011718       0xac zephyr/kernel/libkernel.a(timeout.c.obj)
                0x00011718                z_clock_announce
 .text.z_tick_get
                0x000117c4       0x3c zephyr/kernel/libkernel.a(timeout.c.obj)
                0x000117c4                z_tick_get
 .text.z_impl_k_poll
                0x00011800      0x134 zephyr/kernel/libkernel.a(poll.c.obj)
                0x00011800                z_impl_k_poll
 .text.z_impl_k_poll_signal_raise
                0x00011934       0x54 zephyr/kernel/libkernel.a(poll.c.obj)
                0x00011934                z_impl_k_poll_signal_raise
 .text.z_impl_uart_irq_tx_disable
                0x00011988        0xa app/libapp.a(main.c.obj)
 .text.k_sleep  0x00011992        0x4 app/libapp.a(main.c.obj)
 .text.button_changed
                0x00011996        0x6 app/libapp.a(main.c.obj)
                0x00011996                button_changed
 .text.main     0x0001199c       0x2c app/libapp.a(main.c.obj)
                0x0001199c                main
 .text.gpio_pin_configure.constprop.0
                0x000119c8       0x12 app/libapp.a(board_functions.c.obj)
 .text.gpio_pin_write
                0x000119da       0x12 app/libapp.a(board_functions.c.obj)
 .text.get_bit_ptr
                0x000119ec       0x2a zephyr/libzephyr.a(mempool.c.obj)
 .text.set_free_bit
                0x00011a16       0x1c zephyr/libzephyr.a(mempool.c.obj)
 .text.clear_free_bit
                0x00011a32       0x1e zephyr/libzephyr.a(mempool.c.obj)
 .text.pool_irq_lock.isra.2.part.3
                0x00011a50       0x12 zephyr/libzephyr.a(mempool.c.obj)
 .text.pool_irq_unlock.isra.4
                0x00011a62        0xe zephyr/libzephyr.a(mempool.c.obj)
 .text.z_sys_mem_pool_base_init
                0x00011a70       0x94 zephyr/libzephyr.a(mempool.c.obj)
                0x00011a70                z_sys_mem_pool_base_init
 .text.z_sys_mem_pool_block_alloc
                0x00011b04      0x16a zephyr/libzephyr.a(mempool.c.obj)
                0x00011b04                z_sys_mem_pool_block_alloc
 .text.z_sys_mem_pool_block_free
                0x00011c6e      0x12c zephyr/libzephyr.a(mempool.c.obj)
                0x00011c6e                z_sys_mem_pool_block_free
 .text.z_thread_entry
                0x00011d9a       0x14 zephyr/libzephyr.a(thread_entry.c.obj)
                0x00011d9a                z_thread_entry
 .text.z_work_q_main
                0x00011dae       0x3e zephyr/libzephyr.a(work_q.c.obj)
                0x00011dae                z_work_q_main
 .text.z_arch_printk_char_out
                0x00011dec        0x4 zephyr/libzephyr.a(printk.c.obj)
                0x00011dec                z_arch_printk_char_out
 .text.print_err
                0x00011df0       0x1c zephyr/libzephyr.a(printk.c.obj)
 .text.str_out  0x00011e0c       0x26 zephyr/libzephyr.a(printk.c.obj)
 .text.z_vprintk
                0x00011e32      0x2ec zephyr/libzephyr.a(printk.c.obj)
                0x00011e32                z_vprintk
 .text.printk   0x0001211e       0x1a zephyr/libzephyr.a(printk.c.obj)
                0x0001211e                printk
 .text.snprintk
                0x00012138       0x1a zephyr/libzephyr.a(printk.c.obj)
                0x00012138                snprintk
 .text._ConfigAbsSyms
                0x00012152        0x2 zephyr/libzephyr.a(configs.c.obj)
                0x00012152                _ConfigAbsSyms
 .text.nordicsemi_nrf52_init
                0x00012154       0x26 zephyr/libzephyr.a(soc.c.obj)
 .text.z_platform_init
                0x0001217a        0x4 zephyr/libzephyr.a(soc.c.obj)
                0x0001217a                z_platform_init
 .text._copy    0x0001217e       0x1a zephyr/libzephyr.a(utils.c.obj)
                0x0001217e                _copy
 .text._set     0x00012198        0x4 zephyr/libzephyr.a(utils.c.obj)
                0x00012198                _set
 .text._double_byte
                0x0001219c       0x12 zephyr/libzephyr.a(utils.c.obj)
                0x0001219c                _double_byte
 .text.uECC_make_key
                0x000121ae       0x96 zephyr/libzephyr.a(ecc_dh.c.obj)
                0x000121ae                uECC_make_key
 .text.uECC_shared_secret
                0x00012244       0xbc zephyr/libzephyr.a(ecc_dh.c.obj)
                0x00012244                uECC_shared_secret
 .text.uECC_vli_add
                0x00012300       0x30 zephyr/libzephyr.a(ecc.c.obj)
 .text.uECC_vli_rshift1
                0x00012330       0x1a zephyr/libzephyr.a(ecc.c.obj)
 .text.vli_modInv_update
                0x0001234a       0x38 zephyr/libzephyr.a(ecc.c.obj)
 .text.uECC_vli_mult
                0x00012382      0x11c zephyr/libzephyr.a(ecc.c.obj)
 .text.uECC_vli_clear
                0x0001249e       0x16 zephyr/libzephyr.a(ecc.c.obj)
                0x0001249e                uECC_vli_clear
 .text.uECC_vli_isZero
                0x000124b4       0x1e zephyr/libzephyr.a(ecc.c.obj)
                0x000124b4                uECC_vli_isZero
 .text.uECC_vli_testBit
                0x000124d2       0x14 zephyr/libzephyr.a(ecc.c.obj)
                0x000124d2                uECC_vli_testBit
 .text.uECC_vli_numBits
                0x000124e6       0x44 zephyr/libzephyr.a(ecc.c.obj)
                0x000124e6                uECC_vli_numBits
 .text.uECC_vli_set
                0x0001252a       0x18 zephyr/libzephyr.a(ecc.c.obj)
                0x0001252a                uECC_vli_set
 .text.uECC_vli_cmp_unsafe
                0x00012542       0x34 zephyr/libzephyr.a(ecc.c.obj)
                0x00012542                uECC_vli_cmp_unsafe
 .text.uECC_vli_equal
                0x00012576       0x34 zephyr/libzephyr.a(ecc.c.obj)
                0x00012576                uECC_vli_equal
 .text.uECC_vli_sub
                0x000125aa       0x30 zephyr/libzephyr.a(ecc.c.obj)
                0x000125aa                uECC_vli_sub
 .text.uECC_vli_modAdd
                0x000125da       0x32 zephyr/libzephyr.a(ecc.c.obj)
                0x000125da                uECC_vli_modAdd
 .text.uECC_vli_modSub
                0x0001260c       0x22 zephyr/libzephyr.a(ecc.c.obj)
                0x0001260c                uECC_vli_modSub
 .text.uECC_vli_mmod
                0x0001262e      0x134 zephyr/libzephyr.a(ecc.c.obj)
                0x0001262e                uECC_vli_mmod
 .text.uECC_vli_modMult_fast
                0x00012762       0x20 zephyr/libzephyr.a(ecc.c.obj)
                0x00012762                uECC_vli_modMult_fast
 .text.uECC_vli_modSquare_fast
                0x00012782        0x8 zephyr/libzephyr.a(ecc.c.obj)
 .text.double_jacobian_default
                0x0001278a      0x152 zephyr/libzephyr.a(ecc.c.obj)
                0x0001278a                double_jacobian_default
 .text.x_side_default
                0x000128dc       0x62 zephyr/libzephyr.a(ecc.c.obj)
                0x000128dc                x_side_default
 .text.XYcZ_addC
                0x0001293e      0x118 zephyr/libzephyr.a(ecc.c.obj)
 .text.uECC_vli_modInv
                0x00012a56      0x106 zephyr/libzephyr.a(ecc.c.obj)
                0x00012a56                uECC_vli_modInv
 .text.EccPoint_isZero
                0x00012b5c        0xa zephyr/libzephyr.a(ecc.c.obj)
                0x00012b5c                EccPoint_isZero
 .text.apply_z  0x00012b66       0x3e zephyr/libzephyr.a(ecc.c.obj)
                0x00012b66                apply_z
 .text.XYcZ_add
                0x00012ba4       0xca zephyr/libzephyr.a(ecc.c.obj)
                0x00012ba4                XYcZ_add
 .text.EccPoint_mult
                0x00012c6e      0x19e zephyr/libzephyr.a(ecc.c.obj)
                0x00012c6e                EccPoint_mult
 .text.regularize_k
                0x00012e0c       0x58 zephyr/libzephyr.a(ecc.c.obj)
                0x00012e0c                regularize_k
 .text.EccPoint_compute_public_key
                0x00012e64       0x50 zephyr/libzephyr.a(ecc.c.obj)
                0x00012e64                EccPoint_compute_public_key
 .text.uECC_vli_nativeToBytes
                0x00012eb4       0x28 zephyr/libzephyr.a(ecc.c.obj)
                0x00012eb4                uECC_vli_nativeToBytes
 .text.uECC_vli_bytesToNative
                0x00012edc       0x40 zephyr/libzephyr.a(ecc.c.obj)
                0x00012edc                uECC_vli_bytesToNative
 .text.uECC_valid_point
                0x00012f1c       0x74 zephyr/libzephyr.a(ecc.c.obj)
                0x00012f1c                uECC_valid_point
 .text.uECC_valid_public_key
                0x00012f90       0x46 zephyr/libzephyr.a(ecc.c.obj)
                0x00012f90                uECC_valid_public_key
 .text.add_round_key
                0x00012fd6       0x8a zephyr/libzephyr.a(aes_encrypt.c.obj)
 .text.shift_rows
                0x00013060       0x72 zephyr/libzephyr.a(aes_encrypt.c.obj)
 .text.mult_row_column
                0x000130d2       0x80 zephyr/libzephyr.a(aes_encrypt.c.obj)
 .text.gf_double
                0x00013152       0x2a zephyr/libzephyr.a(cmac_mode.c.obj)
                0x00013152                gf_double
 .text.tc_cmac_erase
                0x0001317c       0x10 zephyr/libzephyr.a(cmac_mode.c.obj)
                0x0001317c                tc_cmac_erase
 .text.tc_cmac_init
                0x0001318c       0x2c zephyr/libzephyr.a(cmac_mode.c.obj)
                0x0001318c                tc_cmac_init
 .text.tc_cmac_setup
                0x000131b8       0x56 zephyr/libzephyr.a(cmac_mode.c.obj)
                0x000131b8                tc_cmac_setup
 .text.tc_cmac_update
                0x0001320e       0xc8 zephyr/libzephyr.a(cmac_mode.c.obj)
                0x0001320e                tc_cmac_update
 .text.tc_cmac_final
                0x000132d6       0x68 zephyr/libzephyr.a(cmac_mode.c.obj)
                0x000132d6                tc_cmac_final
 .text.nrf_pwm_event_clear
                0x0001333e       0x10 zephyr/libzephyr.a(nrfx_pwm.c.obj)
 .text.start_playback.isra.2
                0x0001334e       0x4c zephyr/libzephyr.a(nrfx_pwm.c.obj)
 .text.nrfx_pwm_stop
                0x0001339a       0x26 zephyr/libzephyr.a(nrfx_pwm.c.obj)
                0x0001339a                nrfx_pwm_stop
 .text.clock_control_init
                0x000133c0       0x16 zephyr/libzephyr.a(nrf_power_clock.c.obj)
 .text.z_clock_isr
                0x000133d6        0x2 zephyr/libzephyr.a(sys_clock_init.c.obj)
                0x000133d6                z_clock_isr
 .text.z_clock_idle_exit
                0x000133d8        0x2 zephyr/libzephyr.a(sys_clock_init.c.obj)
                0x000133d8                z_clock_idle_exit
 .text.z_irq_spurious
                0x000133da        0x4 zephyr/arch/arm/core/libarch__arm__core.a(irq_manage.c.obj)
                0x000133da                z_irq_spurious
 .text.z_arch_isr_direct_header
                0x000133de        0x2 zephyr/arch/arm/core/libarch__arm__core.a(irq_manage.c.obj)
                0x000133de                z_arch_isr_direct_header
 .text.z_do_kernel_oops
                0x000133e0        0x8 zephyr/arch/arm/core/libarch__arm__core.a(fatal.c.obj)
                0x000133e0                z_do_kernel_oops
 .text.__nmi    0x000133e8        0xe zephyr/arch/arm/core/libarch__arm__core.a(nmi.c.obj)
                0x000133e8                __nmi
 .text.z_arch_configure_dynamic_mpu_regions
                0x000133f6       0x10 zephyr/arch/arm/core/cortex_m/mpu/libarch__arm__core__cortex_m__mpu.a(arm_core_mpu.c.obj)
                0x000133f6                z_arch_configure_dynamic_mpu_regions
 .text.strcpy   0x00013406       0x14 zephyr/lib/libc/minimal/liblib__libc__minimal.a(string.c.obj)
                0x00013406                strcpy
 .text.strlen   0x0001341a       0x10 zephyr/lib/libc/minimal/liblib__libc__minimal.a(string.c.obj)
                0x0001341a                strlen
 .text.strcmp   0x0001342a       0x1a zephyr/lib/libc/minimal/liblib__libc__minimal.a(string.c.obj)
                0x0001342a                strcmp
 .text.memcmp   0x00013444       0x20 zephyr/lib/libc/minimal/liblib__libc__minimal.a(string.c.obj)
                0x00013444                memcmp
 .text.memcpy   0x00013464       0x5a zephyr/lib/libc/minimal/liblib__libc__minimal.a(string.c.obj)
                0x00013464                memcpy
 .text.memset   0x000134be       0x42 zephyr/lib/libc/minimal/liblib__libc__minimal.a(string.c.obj)
                0x000134be                memset
 .text._stdout_hook_default
                0x00013500        0x6 zephyr/lib/libc/minimal/liblib__libc__minimal.a(stdout_console.c.obj)
 .text.ah       0x00013506       0x3a zephyr/subsys/bluetooth/common/libsubsys__bluetooth__common.a(rpa.c.obj)
 .text.bt_rpa_irk_matches
                0x00013540       0x26 zephyr/subsys/bluetooth/common/libsubsys__bluetooth__common.a(rpa.c.obj)
                0x00013540                bt_rpa_irk_matches
 .text.bt_rpa_create
                0x00013566       0x2e zephyr/subsys/bluetooth/common/libsubsys__bluetooth__common.a(rpa.c.obj)
                0x00013566                bt_rpa_create
 .text.send_cmd_status
                0x00013594       0x46 zephyr/subsys/bluetooth/host/libsubsys__bluetooth__host.a(hci_ecc.c.obj)
 .text.sys_memcpy_swap.constprop.2
                0x000135da       0x14 zephyr/subsys/bluetooth/host/libsubsys__bluetooth__host.a(hci_ecc.c.obj)
 .text.default_CSPRNG
                0x000135ee        0xe zephyr/subsys/bluetooth/host/libsubsys__bluetooth__host.a(hci_ecc.c.obj)
                0x000135ee                default_CSPRNG
 .text.bt_uuid_cmp
                0x000135fc       0x54 zephyr/subsys/bluetooth/host/libsubsys__bluetooth__host.a(uuid.c.obj)
                0x000135fc                bt_uuid_cmp
 .text.handle_event
                0x00013650       0x26 zephyr/subsys/bluetooth/host/libsubsys__bluetooth__host.a(hci_core.c.obj)
 .text.hci_vendor_event
                0x00013676        0x2 zephyr/subsys/bluetooth/host/libsubsys__bluetooth__host.a(hci_core.c.obj)
 .text.bt_addr_le_copy
                0x00013678        0x6 zephyr/subsys/bluetooth/host/libsubsys__bluetooth__host.a(hci_core.c.obj)
 .text.atomic_or
                0x0001367e       0x1e zephyr/subsys/bluetooth/host/libsubsys__bluetooth__host.a(hci_core.c.obj)
 .text.atomic_and
                0x0001369c       0x1e zephyr/subsys/bluetooth/host/libsubsys__bluetooth__host.a(hci_core.c.obj)
 .text.le_data_len_change
                0x000136ba       0x16 zephyr/subsys/bluetooth/host/libsubsys__bluetooth__host.a(hci_core.c.obj)
 .text.le_conn_update_complete
                0x000136d0       0x88 zephyr/subsys/bluetooth/host/libsubsys__bluetooth__host.a(hci_core.c.obj)
 .text.hci_num_completed_packets
                0x00013758       0x98 zephyr/subsys/bluetooth/host/libsubsys__bluetooth__host.a(hci_core.c.obj)
 .text.update_sec_level.part.14
                0x000137f0       0x30 zephyr/subsys/bluetooth/host/libsubsys__bluetooth__host.a(hci_core.c.obj)
 .text.hci_encrypt_change
                0x00013820       0x54 zephyr/subsys/bluetooth/host/libsubsys__bluetooth__host.a(hci_core.c.obj)
 .text.find_pending_connect
                0x00013874       0x1a zephyr/subsys/bluetooth/host/libsubsys__bluetooth__host.a(hci_core.c.obj)
 .text.atomic_test_bit
                0x0001388e       0x12 zephyr/subsys/bluetooth/host/libsubsys__bluetooth__host.a(hci_core.c.obj)
 .text.sys_put_le64
                0x000138a0       0x20 zephyr/subsys/bluetooth/host/libsubsys__bluetooth__host.a(hci_core.c.obj)
 .text.hci_encrypt_key_refresh_complete
                0x000138c0       0x4e zephyr/subsys/bluetooth/host/libsubsys__bluetooth__host.a(hci_core.c.obj)
 .text.le_ltk_request
                0x0001390e      0x158 zephyr/subsys/bluetooth/host/libsubsys__bluetooth__host.a(hci_core.c.obj)
 .text.le_conn_param_neg_reply
                0x00013a66       0x30 zephyr/subsys/bluetooth/host/libsubsys__bluetooth__host.a(hci_core.c.obj)
 .text.le_conn_param_req
                0x00013a96       0xae zephyr/subsys/bluetooth/host/libsubsys__bluetooth__host.a(hci_core.c.obj)
 .text.hci_le_set_phy.isra.29
                0x00013b44       0x40 zephyr/subsys/bluetooth/host/libsubsys__bluetooth__host.a(hci_core.c.obj)
 .text.hci_id_add
                0x00013b84       0x50 zephyr/subsys/bluetooth/host/libsubsys__bluetooth__host.a(hci_core.c.obj)
 .text.keys_add_id
                0x00013bd4        0xa zephyr/subsys/bluetooth/host/libsubsys__bluetooth__host.a(hci_core.c.obj)
 .text.addr_res_enable
                0x00013bde       0x30 zephyr/subsys/bluetooth/host/libsubsys__bluetooth__host.a(hci_core.c.obj)
 .text.le_set_private_addr.isra.21
                0x00013c0e       0x24 zephyr/subsys/bluetooth/host/libsubsys__bluetooth__host.a(hci_core.c.obj)
 .text.set_ad   0x00013c32       0xb2 zephyr/subsys/bluetooth/host/libsubsys__bluetooth__host.a(hci_core.c.obj)
 .text.hci_le_set_data_len.isra.28
                0x00013ce4       0x4e zephyr/subsys/bluetooth/host/libsubsys__bluetooth__host.a(hci_core.c.obj)
 .text.le_enh_conn_complete
                0x00013d32        0x6 zephyr/subsys/bluetooth/host/libsubsys__bluetooth__host.a(hci_core.c.obj)
 .text.bt_lookup_id_addr
                0x00013d38       0x10 zephyr/subsys/bluetooth/host/libsubsys__bluetooth__host.a(hci_core.c.obj)
                0x00013d38                bt_lookup_id_addr
 .text.bt_le_conn_params_valid
                0x00013d48       0x40 zephyr/subsys/bluetooth/host/libsubsys__bluetooth__host.a(hci_core.c.obj)
                0x00013d48                bt_le_conn_params_valid
 .text.update_pending_id
                0x00013d88       0x20 zephyr/subsys/bluetooth/host/libsubsys__bluetooth__host.a(hci_core.c.obj)
 .text.bt_addr_le_create_static
                0x00013da8       0x1c zephyr/subsys/bluetooth/host/libsubsys__bluetooth__host.a(hci_core.c.obj)
                0x00013da8                bt_addr_le_create_static
 .text.bt_send  0x00013dc4        0x4 zephyr/subsys/bluetooth/host/libsubsys__bluetooth__host.a(hci_core.c.obj)
                0x00013dc4                bt_send
 .text.bt_addr_le_is_bonded
                0x00013dc8       0x12 zephyr/subsys/bluetooth/host/libsubsys__bluetooth__host.a(hci_core.c.obj)
                0x00013dc8                bt_addr_le_is_bonded
 .text.bt_le_adv_start
                0x00013dda       0x1e zephyr/subsys/bluetooth/host/libsubsys__bluetooth__host.a(hci_core.c.obj)
                0x00013dda                bt_le_adv_start
 .text.atomic_get
                0x00013df8        0xc zephyr/subsys/bluetooth/host/libsubsys__bluetooth__host.a(conn.c.obj)
 .text.bt_conn_reset_rx_state
                0x00013e04       0x16 zephyr/subsys/bluetooth/host/libsubsys__bluetooth__host.a(conn.c.obj)
 .text.atomic_dec
                0x00013e1a       0x1a zephyr/subsys/bluetooth/host/libsubsys__bluetooth__host.a(conn.c.obj)
 .text.atomic_inc
                0x00013e34       0x1a zephyr/subsys/bluetooth/host/libsubsys__bluetooth__host.a(conn.c.obj)
 .text.tx_notify_cb
                0x00013e4e       0x30 zephyr/subsys/bluetooth/host/libsubsys__bluetooth__host.a(conn.c.obj)
 .text.bt_conn_recv
                0x00013e7e       0x8e zephyr/subsys/bluetooth/host/libsubsys__bluetooth__host.a(conn.c.obj)
                0x00013e7e                bt_conn_recv
 .text.bt_conn_send_cb
                0x00013f0c       0x22 zephyr/subsys/bluetooth/host/libsubsys__bluetooth__host.a(conn.c.obj)
                0x00013f0c                bt_conn_send_cb
 .text.conn_cleanup
                0x00013f2e       0x30 zephyr/subsys/bluetooth/host/libsubsys__bluetooth__host.a(conn.c.obj)
 .text.bt_conn_addr_le_cmp
                0x00013f5e       0x30 zephyr/subsys/bluetooth/host/libsubsys__bluetooth__host.a(conn.c.obj)
                0x00013f5e                bt_conn_addr_le_cmp
 .text.bt_conn_ref
                0x00013f8e        0xe zephyr/subsys/bluetooth/host/libsubsys__bluetooth__host.a(conn.c.obj)
                0x00013f8e                bt_conn_ref
 .text.bt_conn_unref
                0x00013f9c        0x6 zephyr/subsys/bluetooth/host/libsubsys__bluetooth__host.a(conn.c.obj)
                0x00013f9c                bt_conn_unref
 .text.bt_conn_get_dst
                0x00013fa2        0x4 zephyr/subsys/bluetooth/host/libsubsys__bluetooth__host.a(conn.c.obj)
                0x00013fa2                bt_conn_get_dst
 .text.bt_conn_disconnect
                0x00013fa6       0x78 zephyr/subsys/bluetooth/host/libsubsys__bluetooth__host.a(conn.c.obj)
                0x00013fa6                bt_conn_disconnect
 .text.bt_conn_le_conn_update
                0x0001401e       0x4e zephyr/subsys/bluetooth/host/libsubsys__bluetooth__host.a(conn.c.obj)
                0x0001401e                bt_conn_le_conn_update
 .text.l2cap_connected
                0x0001406c        0x2 zephyr/subsys/bluetooth/host/libsubsys__bluetooth__host.a(l2cap.c.obj)
 .text.l2cap_rx_process
                0x0001406e       0x2e zephyr/subsys/bluetooth/host/libsubsys__bluetooth__host.a(l2cap.c.obj)
 .text.l2cap_disconnected
                0x0001409c        0x2 zephyr/subsys/bluetooth/host/libsubsys__bluetooth__host.a(l2cap.c.obj)
 .text.bt_l2cap_chan_remove
                0x0001409e       0x40 zephyr/subsys/bluetooth/host/libsubsys__bluetooth__host.a(l2cap.c.obj)
                0x0001409e                bt_l2cap_chan_remove
 .text.bt_l2cap_chan_del
                0x000140de       0x36 zephyr/subsys/bluetooth/host/libsubsys__bluetooth__host.a(l2cap.c.obj)
                0x000140de                bt_l2cap_chan_del
 .text.l2cap_rtx_timeout
                0x00014114       0x1a zephyr/subsys/bluetooth/host/libsubsys__bluetooth__host.a(l2cap.c.obj)
 .text.bt_l2cap_disconnected
                0x0001412e       0x2e zephyr/subsys/bluetooth/host/libsubsys__bluetooth__host.a(l2cap.c.obj)
                0x0001412e                bt_l2cap_disconnected
 .text.bt_l2cap_encrypt_change
                0x0001415c       0x1e zephyr/subsys/bluetooth/host/libsubsys__bluetooth__host.a(l2cap.c.obj)
                0x0001415c                bt_l2cap_encrypt_change
 .text.bt_l2cap_create_pdu
                0x0001417a        0x6 zephyr/subsys/bluetooth/host/libsubsys__bluetooth__host.a(l2cap.c.obj)
                0x0001417a                bt_l2cap_create_pdu
 .text.bt_l2cap_send_cb
                0x00014180       0x32 zephyr/subsys/bluetooth/host/libsubsys__bluetooth__host.a(l2cap.c.obj)
                0x00014180                bt_l2cap_send_cb
 .text.l2cap_recv
                0x000141b2       0x70 zephyr/subsys/bluetooth/host/libsubsys__bluetooth__host.a(l2cap.c.obj)
 .text.bt_l2cap_le_lookup_tx_cid
                0x00014222       0x16 zephyr/subsys/bluetooth/host/libsubsys__bluetooth__host.a(l2cap.c.obj)
                0x00014222                bt_l2cap_le_lookup_tx_cid
 .text.bt_l2cap_le_lookup_rx_cid
                0x00014238       0x16 zephyr/subsys/bluetooth/host/libsubsys__bluetooth__host.a(l2cap.c.obj)
                0x00014238                bt_l2cap_le_lookup_rx_cid
 .text.bt_l2cap_init
                0x0001424e        0x2 zephyr/subsys/bluetooth/host/libsubsys__bluetooth__host.a(l2cap.c.obj)
                0x0001424e                bt_l2cap_init
 .text.att_prepare_write_req
                0x00014250        0x4 zephyr/subsys/bluetooth/host/libsubsys__bluetooth__host.a(att.c.obj)
 .text.att_req_destroy
                0x00014254       0x22 zephyr/subsys/bluetooth/host/libsubsys__bluetooth__host.a(att.c.obj)
 .text.bt_gatt_foreach_attr
                0x00014276       0x16 zephyr/subsys/bluetooth/host/libsubsys__bluetooth__host.a(att.c.obj)
 .text.read_group_cb
                0x0001428c       0xce zephyr/subsys/bluetooth/host/libsubsys__bluetooth__host.a(att.c.obj)
 .text.find_info_cb
                0x0001435a       0x9a zephyr/subsys/bluetooth/host/libsubsys__bluetooth__host.a(att.c.obj)
 .text.find_type_cb
                0x000143f4       0xa6 zephyr/subsys/bluetooth/host/libsubsys__bluetooth__host.a(att.c.obj)
 .text.check_perm
                0x0001449a       0x50 zephyr/subsys/bluetooth/host/libsubsys__bluetooth__host.a(att.c.obj)
 .text.read_type_cb
                0x000144ea       0xba zephyr/subsys/bluetooth/host/libsubsys__bluetooth__host.a(att.c.obj)
 .text.att_send
                0x000145a4       0x3a zephyr/subsys/bluetooth/host/libsubsys__bluetooth__host.a(att.c.obj)
 .text.att_pdu_sent
                0x000145de       0x5e zephyr/subsys/bluetooth/host/libsubsys__bluetooth__host.a(att.c.obj)
 .text.uuid_create
                0x0001463c       0x32 zephyr/subsys/bluetooth/host/libsubsys__bluetooth__host.a(att.c.obj)
 .text.att_exec_write_req
                0x0001466e        0x4 zephyr/subsys/bluetooth/host/libsubsys__bluetooth__host.a(att.c.obj)
 .text.att_send_req
                0x00014672       0x5a zephyr/subsys/bluetooth/host/libsubsys__bluetooth__host.a(att.c.obj)
 .text.att_confirm
                0x000146cc        0xa zephyr/subsys/bluetooth/host/libsubsys__bluetooth__host.a(att.c.obj)
 .text.bt_att_encrypt_change
                0x000146d6       0x80 zephyr/subsys/bluetooth/host/libsubsys__bluetooth__host.a(att.c.obj)
 .text.att_reset
                0x00014756       0x76 zephyr/subsys/bluetooth/host/libsubsys__bluetooth__host.a(att.c.obj)
 .text.bt_att_disconnected
                0x000147cc       0x12 zephyr/subsys/bluetooth/host/libsubsys__bluetooth__host.a(att.c.obj)
 .text.att_timeout
                0x000147de       0x1a zephyr/subsys/bluetooth/host/libsubsys__bluetooth__host.a(att.c.obj)
 .text.att_cfm_sent
                0x000147f8       0x32 zephyr/subsys/bluetooth/host/libsubsys__bluetooth__host.a(att.c.obj)
 .text.att_rsp_sent
                0x0001482a       0x32 zephyr/subsys/bluetooth/host/libsubsys__bluetooth__host.a(att.c.obj)
 .text.att_chan_get
                0x0001485c       0x26 zephyr/subsys/bluetooth/host/libsubsys__bluetooth__host.a(att.c.obj)
 .text.write_cb
                0x00014882       0x62 zephyr/subsys/bluetooth/host/libsubsys__bluetooth__host.a(att.c.obj)
 .text.read_cb  0x000148e4       0x76 zephyr/subsys/bluetooth/host/libsubsys__bluetooth__host.a(att.c.obj)
 .text.bt_att_create_pdu
                0x0001495a       0x32 zephyr/subsys/bluetooth/host/libsubsys__bluetooth__host.a(att.c.obj)
                0x0001495a                bt_att_create_pdu
 .text.att_read_blob_req
                0x0001498c       0x18 zephyr/subsys/bluetooth/host/libsubsys__bluetooth__host.a(att.c.obj)
 .text.att_read_req
                0x000149a4       0x18 zephyr/subsys/bluetooth/host/libsubsys__bluetooth__host.a(att.c.obj)
 .text.bt_att_init
                0x000149bc        0x4 zephyr/subsys/bluetooth/host/libsubsys__bluetooth__host.a(att.c.obj)
                0x000149bc                bt_att_init
 .text.bt_att_send
                0x000149c0       0x64 zephyr/subsys/bluetooth/host/libsubsys__bluetooth__host.a(att.c.obj)
                0x000149c0                bt_att_send
 .text.bt_att_req_send
                0x00014a24       0x46 zephyr/subsys/bluetooth/host/libsubsys__bluetooth__host.a(att.c.obj)
                0x00014a24                bt_att_req_send
 .text.gatt_ccc_changed
                0x00014a6a       0x34 zephyr/subsys/bluetooth/host/libsubsys__bluetooth__host.a(gatt.c.obj)
 .text.gatt_indicate_rsp
                0x00014a9e       0x10 zephyr/subsys/bluetooth/host/libsubsys__bluetooth__host.a(gatt.c.obj)
 .text.find_ccc_cfg
                0x00014aae       0x4a zephyr/subsys/bluetooth/host/libsubsys__bluetooth__host.a(gatt.c.obj)
 .text.gatt_notify
                0x00014af8       0x54 zephyr/subsys/bluetooth/host/libsubsys__bluetooth__host.a(gatt.c.obj)
 .text.match_uuid
                0x00014b4c        0x6 zephyr/subsys/bluetooth/host/libsubsys__bluetooth__host.a(gatt.c.obj)
 .text.clear_ccc_cfg
                0x00014b52       0x2a zephyr/subsys/bluetooth/host/libsubsys__bluetooth__host.a(gatt.c.obj)
 .text.bt_gatt_attr_write_ccc
                0x00014b7c       0x9c zephyr/subsys/bluetooth/host/libsubsys__bluetooth__host.a(gatt.c.obj)
                0x00014b7c                bt_gatt_attr_write_ccc
 .text.read_appearance
                0x00014c18       0x36 zephyr/subsys/bluetooth/host/libsubsys__bluetooth__host.a(gatt.c.obj)
 .text.read_name
                0x00014c4e       0x3e zephyr/subsys/bluetooth/host/libsubsys__bluetooth__host.a(gatt.c.obj)
 .text.bt_gatt_attr_read_service
                0x00014c8c       0x52 zephyr/subsys/bluetooth/host/libsubsys__bluetooth__host.a(gatt.c.obj)
                0x00014c8c                bt_gatt_attr_read_service
 .text.bt_gatt_attr_read_chrc
                0x00014cde       0x62 zephyr/subsys/bluetooth/host/libsubsys__bluetooth__host.a(gatt.c.obj)
                0x00014cde                bt_gatt_attr_read_chrc
 .text.bt_gatt_foreach_attr
                0x00014d40       0x16 zephyr/subsys/bluetooth/host/libsubsys__bluetooth__host.a(gatt.c.obj)
 .text.bt_gatt_attr_read_ccc
                0x00014d56       0x46 zephyr/subsys/bluetooth/host/libsubsys__bluetooth__host.a(gatt.c.obj)
                0x00014d56                bt_gatt_attr_read_ccc
 .text.bt_gatt_change_aware
                0x00014d9c        0x4 zephyr/subsys/bluetooth/host/libsubsys__bluetooth__host.a(gatt.c.obj)
                0x00014d9c                bt_gatt_change_aware
 .text.sys_memcpy_swap
                0x00014da0       0x1a zephyr/subsys/bluetooth/host/libsubsys__bluetooth__host.a(smp.c.obj)
 .text.smp_pairing_rsp
                0x00014dba        0x4 zephyr/subsys/bluetooth/host/libsubsys__bluetooth__host.a(smp.c.obj)
 .text.smp_chan_get
                0x00014dbe        0x6 zephyr/subsys/bluetooth/host/libsubsys__bluetooth__host.a(smp.c.obj)
 .text.atomic_test_bit
                0x00014dc4       0x12 zephyr/subsys/bluetooth/host/libsubsys__bluetooth__host.a(smp.c.obj)
 .text.atomic_set_bit
                0x00014dd6       0x1e zephyr/subsys/bluetooth/host/libsubsys__bluetooth__host.a(smp.c.obj)
 .text.atomic_clear_bit
                0x00014df4       0x20 zephyr/subsys/bluetooth/host/libsubsys__bluetooth__host.a(smp.c.obj)
 .text.bt_smp_aes_cmac
                0x00014e14       0x3c zephyr/subsys/bluetooth/host/libsubsys__bluetooth__host.a(smp.c.obj)
 .text.bt_smp_disconnected
                0x00014e50       0x32 zephyr/subsys/bluetooth/host/libsubsys__bluetooth__host.a(smp.c.obj)
 .text.smp_ident_info
                0x00014e82       0x3e zephyr/subsys/bluetooth/host/libsubsys__bluetooth__host.a(smp.c.obj)
 .text.smp_encrypt_info
                0x00014ec0       0x3e zephyr/subsys/bluetooth/host/libsubsys__bluetooth__host.a(smp.c.obj)
 .text.smp_create_pdu.isra.3
                0x00014efe       0x1c zephyr/subsys/bluetooth/host/libsubsys__bluetooth__host.a(smp.c.obj)
 .text.smp_security_request
                0x00014f1a        0x4 zephyr/subsys/bluetooth/host/libsubsys__bluetooth__host.a(smp.c.obj)
 .text.sys_mem_swap.constprop.14
                0x00014f1e       0x1c zephyr/subsys/bluetooth/host/libsubsys__bluetooth__host.a(smp.c.obj)
 .text.smp_f6   0x00014f3a       0x96 zephyr/subsys/bluetooth/host/libsubsys__bluetooth__host.a(smp.c.obj)
 .text.smp_f4   0x00014fd0       0x48 zephyr/subsys/bluetooth/host/libsubsys__bluetooth__host.a(smp.c.obj)
 .text.smp_dhkey_check
                0x00015018       0x52 zephyr/subsys/bluetooth/host/libsubsys__bluetooth__host.a(smp.c.obj)
 .text.smp_send_pairing_random
                0x0001506a       0x32 zephyr/subsys/bluetooth/host/libsubsys__bluetooth__host.a(smp.c.obj)
 .text.send_pairing_rsp
                0x0001509c       0x32 zephyr/subsys/bluetooth/host/libsubsys__bluetooth__host.a(smp.c.obj)
 .text.smp_signing_info
                0x000150ce        0x4 zephyr/subsys/bluetooth/host/libsubsys__bluetooth__host.a(smp.c.obj)
 .text.atomic_test_and_clear_bit
                0x000150d2       0x36 zephyr/subsys/bluetooth/host/libsubsys__bluetooth__host.a(smp.c.obj)
 .text.smp_reset
                0x00015108       0x56 zephyr/subsys/bluetooth/host/libsubsys__bluetooth__host.a(smp.c.obj)
 .text.smp_error
                0x0001515e       0x3a zephyr/subsys/bluetooth/host/libsubsys__bluetooth__host.a(smp.c.obj)
 .text.smp_timeout
                0x00015198       0x32 zephyr/subsys/bluetooth/host/libsubsys__bluetooth__host.a(smp.c.obj)
 .text.smp_master_ident
                0x000151ca       0x76 zephyr/subsys/bluetooth/host/libsubsys__bluetooth__host.a(smp.c.obj)
 .text.ident_sent
                0x00015240       0x28 zephyr/subsys/bluetooth/host/libsubsys__bluetooth__host.a(smp.c.obj)
 .text.smp_c1   0x00015268       0xa8 zephyr/subsys/bluetooth/host/libsubsys__bluetooth__host.a(smp.c.obj)
 .text.legacy_pairing_confirm
                0x00015310       0x82 zephyr/subsys/bluetooth/host/libsubsys__bluetooth__host.a(smp.c.obj)
 .text.smp_pairing_confirm
                0x00015392       0x6e zephyr/subsys/bluetooth/host/libsubsys__bluetooth__host.a(smp.c.obj)
 .text.smp_ident_addr_info
                0x00015400       0xcc zephyr/subsys/bluetooth/host/libsubsys__bluetooth__host.a(smp.c.obj)
 .text.bt_smp_sign
                0x000154cc        0x6 zephyr/subsys/bluetooth/host/libsubsys__bluetooth__host.a(smp.c.obj)
                0x000154cc                bt_smp_sign
 .text.bt_smp_auth_pairing_confirm
                0x000154d2       0x58 zephyr/subsys/bluetooth/host/libsubsys__bluetooth__host.a(smp.c.obj)
                0x000154d2                bt_smp_auth_pairing_confirm
 .text.bt_smp_update_keys
                0x0001552a       0xde zephyr/subsys/bluetooth/host/libsubsys__bluetooth__host.a(smp.c.obj)
                0x0001552a                bt_smp_update_keys
 .text.bt_smp_get_tk
                0x00015608       0x5c zephyr/subsys/bluetooth/host/libsubsys__bluetooth__host.a(smp.c.obj)
                0x00015608                bt_smp_get_tk
 .text.bt_keys_get_type
                0x00015664       0x20 zephyr/subsys/bluetooth/host/libsubsys__bluetooth__host.a(keys.c.obj)
                0x00015664                bt_keys_get_type
 .text.bt_keys_add_type
                0x00015684        0x8 zephyr/subsys/bluetooth/host/libsubsys__bluetooth__host.a(keys.c.obj)
                0x00015684                bt_keys_add_type
 .text.bt_keys_clear
                0x0001568c       0x1c zephyr/subsys/bluetooth/host/libsubsys__bluetooth__host.a(keys.c.obj)
                0x0001568c                bt_keys_clear
 .text.mem_init
                0x000156a8       0x48 zephyr/subsys/bluetooth/controller/libsubsys__bluetooth__controller.a(mem.c.obj)
                0x000156a8                mem_init
 .text.mem_acquire
                0x000156f0       0x32 zephyr/subsys/bluetooth/controller/libsubsys__bluetooth__controller.a(mem.c.obj)
                0x000156f0                mem_acquire
 .text.mem_release
                0x00015722       0x2a zephyr/subsys/bluetooth/controller/libsubsys__bluetooth__controller.a(mem.c.obj)
                0x00015722                mem_release
 .text.mem_free_count_get
                0x0001574c        0xc zephyr/subsys/bluetooth/controller/libsubsys__bluetooth__controller.a(mem.c.obj)
                0x0001574c                mem_free_count_get
 .text.mem_get  0x00015758        0x6 zephyr/subsys/bluetooth/controller/libsubsys__bluetooth__controller.a(mem.c.obj)
                0x00015758                mem_get
 .text.mem_index_get
                0x0001575e        0xa zephyr/subsys/bluetooth/controller/libsubsys__bluetooth__controller.a(mem.c.obj)
                0x0001575e                mem_index_get
 .text.mem_rcopy
                0x00015768       0x1e zephyr/subsys/bluetooth/controller/libsubsys__bluetooth__controller.a(mem.c.obj)
                0x00015768                mem_rcopy
 .text.mem_nz   0x00015786       0x16 zephyr/subsys/bluetooth/controller/libsubsys__bluetooth__controller.a(mem.c.obj)
                0x00015786                mem_nz
 .text.memq_init
                0x0001579c        0x6 zephyr/subsys/bluetooth/controller/libsubsys__bluetooth__controller.a(memq.c.obj)
                0x0001579c                memq_init
 .text.memq_enqueue
                0x000157a2        0xe zephyr/subsys/bluetooth/controller/libsubsys__bluetooth__controller.a(memq.c.obj)
                0x000157a2                memq_enqueue
 .text.memq_peek
                0x000157b0       0x10 zephyr/subsys/bluetooth/controller/libsubsys__bluetooth__controller.a(memq.c.obj)
                0x000157b0                memq_peek
 .text.memq_dequeue
                0x000157c0       0x1a zephyr/subsys/bluetooth/controller/libsubsys__bluetooth__controller.a(memq.c.obj)
                0x000157c0                memq_dequeue
 .text.util_ones_count_get
                0x000157da       0x22 zephyr/subsys/bluetooth/controller/libsubsys__bluetooth__controller.a(util.c.obj)
                0x000157da                util_ones_count_get
 .text.ticker_dequeue
                0x000157fc       0x56 zephyr/subsys/bluetooth/controller/libsubsys__bluetooth__controller.a(ticker.c.obj)
 .text.ticks_to_expire_prep
                0x00015852       0x3c zephyr/subsys/bluetooth/controller/libsubsys__bluetooth__controller.a(ticker.c.obj)
 .text.ticker_job_op_cb
                0x0001588e       0x14 zephyr/subsys/bluetooth/controller/libsubsys__bluetooth__controller.a(ticker.c.obj)
 .text.ticker_worker
                0x000158a2       0xa8 zephyr/subsys/bluetooth/controller/libsubsys__bluetooth__controller.a(ticker.c.obj)
                0x000158a2                ticker_worker
 .text.ticker_ticks_now_get
                0x0001594a        0x4 zephyr/subsys/bluetooth/controller/libsubsys__bluetooth__controller.a(ticker.c.obj)
                0x0001594a                ticker_ticks_now_get
 .text.ticker_ticks_diff_get
                0x0001594e        0x8 zephyr/subsys/bluetooth/controller/libsubsys__bluetooth__controller.a(ticker.c.obj)
                0x0001594e                ticker_ticks_diff_get
 .text.ll_tx_pwr_get
                0x00015956        0x8 zephyr/subsys/bluetooth/controller/libsubsys__bluetooth__controller.a(ll_tx_pwr.c.obj)
                0x00015956                ll_tx_pwr_get
 .text.sys_put_le32
                0x0001595e       0x12 zephyr/subsys/bluetooth/controller/libsubsys__bluetooth__controller.a(hci.c.obj)
 .text.sys_get_le64
                0x00015970        0x8 zephyr/subsys/bluetooth/controller/libsubsys__bluetooth__controller.a(hci.c.obj)
 .text.hci_evt_create
                0x00015978       0x14 zephyr/subsys/bluetooth/controller/libsubsys__bluetooth__controller.a(hci.c.obj)
                0x00015978                hci_evt_create
 .text.meta_evt
                0x0001598c       0x2a zephyr/subsys/bluetooth/controller/libsubsys__bluetooth__controller.a(hci.c.obj)
 .text.hci_acl_encode
                0x000159b6       0x56 zephyr/subsys/bluetooth/controller/libsubsys__bluetooth__controller.a(hci.c.obj)
                0x000159b6                hci_acl_encode
 .text.hci_num_cmplt_encode
                0x00015a0c       0x28 zephyr/subsys/bluetooth/controller/libsubsys__bluetooth__controller.a(hci.c.obj)
                0x00015a0c                hci_num_cmplt_encode
 .text.bt_rand  0x00015a34       0x34 zephyr/subsys/bluetooth/controller/libsubsys__bluetooth__controller.a(crypto.c.obj)
                0x00015a34                bt_rand
 .text.bt_encrypt_le
                0x00015a68        0xc zephyr/subsys/bluetooth/controller/libsubsys__bluetooth__controller.a(crypto.c.obj)
                0x00015a68                bt_encrypt_le
 .text.cpu_sleep
                0x00015a74        0x8 zephyr/subsys/bluetooth/controller/libsubsys__bluetooth__controller.a(ctrl.c.obj)
 .text.ticker_if_done
                0x00015a7c        0x4 zephyr/subsys/bluetooth/controller/libsubsys__bluetooth__controller.a(ctrl.c.obj)
 .text.prepare_reduced
                0x00015a80        0xc zephyr/subsys/bluetooth/controller/libsubsys__bluetooth__controller.a(ctrl.c.obj)
 .text.prepare_normal
                0x00015a8c        0xc zephyr/subsys/bluetooth/controller/libsubsys__bluetooth__controller.a(ctrl.c.obj)
 .text.chan_sel_remap
                0x00015a98       0x36 zephyr/subsys/bluetooth/controller/libsubsys__bluetooth__controller.a(ctrl.c.obj)
 .text.rx_packet_set
                0x00015ace       0x50 zephyr/subsys/bluetooth/controller/libsubsys__bluetooth__controller.a(ctrl.c.obj)
 .text.isr_adv_ci_adva_check
                0x00015b1e       0x48 zephyr/subsys/bluetooth/controller/libsubsys__bluetooth__controller.a(ctrl.c.obj)
 .text.mayfly_xtal_start.part.5
                0x00015b66        0xc zephyr/subsys/bluetooth/controller/libsubsys__bluetooth__controller.a(ctrl.c.obj)
 .text.ticker_success_assert
                0x00015b72        0xa zephyr/subsys/bluetooth/controller/libsubsys__bluetooth__controller.a(ctrl.c.obj)
 .text.ticker_op_latency_cancelled
                0x00015b7c       0x16 zephyr/subsys/bluetooth/controller/libsubsys__bluetooth__controller.a(ctrl.c.obj)
 .text.mayfly_radio_inactive
                0x00015b92        0x6 zephyr/subsys/bluetooth/controller/libsubsys__bluetooth__controller.a(ctrl.c.obj)
 .text.chan_set
                0x00015b98       0x3e zephyr/subsys/bluetooth/controller/libsubsys__bluetooth__controller.a(ctrl.c.obj)
 .text.mayfly_adv_stop
                0x00015bd6       0x30 zephyr/subsys/bluetooth/controller/libsubsys__bluetooth__controller.a(ctrl.c.obj)
 .text.terminate_ind_rx_enqueue
                0x00015c06       0x2c zephyr/subsys/bluetooth/controller/libsubsys__bluetooth__controller.a(ctrl.c.obj)
 .text.entropy_get_entropy_isr.constprop.43
                0x00015c32       0x18 zephyr/subsys/bluetooth/controller/libsubsys__bluetooth__controller.a(ctrl.c.obj)
 .text.ctrl_tx_enqueue
                0x00015c4a       0x5c zephyr/subsys/bluetooth/controller/libsubsys__bluetooth__controller.a(ctrl.c.obj)
 .text.ctrl_tx_sec_enqueue
                0x00015ca6       0x32 zephyr/subsys/bluetooth/controller/libsubsys__bluetooth__controller.a(ctrl.c.obj)
 .text.start_enc_rsp_send
                0x00015cd8       0x20 zephyr/subsys/bluetooth/controller/libsubsys__bluetooth__controller.a(ctrl.c.obj)
 .text.ll_conn_update
                0x00015cf8       0xfa zephyr/subsys/bluetooth/controller/libsubsys__bluetooth__controller.a(ctrl.c.obj)
                0x00015cf8                ll_conn_update
 .text.ll_chm_get
                0x00015df2       0x2a zephyr/subsys/bluetooth/controller/libsubsys__bluetooth__controller.a(ctrl.c.obj)
                0x00015df2                ll_chm_get
 .text.ll_start_enc_req_send
                0x00015e1c       0x8c zephyr/subsys/bluetooth/controller/libsubsys__bluetooth__controller.a(ctrl.c.obj)
                0x00015e1c                ll_start_enc_req_send
 .text.ll_feature_req_send
                0x00015ea8       0x2c zephyr/subsys/bluetooth/controller/libsubsys__bluetooth__controller.a(ctrl.c.obj)
                0x00015ea8                ll_feature_req_send
 .text.ll_version_ind_send
                0x00015ed4       0x2c zephyr/subsys/bluetooth/controller/libsubsys__bluetooth__controller.a(ctrl.c.obj)
                0x00015ed4                ll_version_ind_send
 .text.ll_terminate_ind_send
                0x00015f00       0x2c zephyr/subsys/bluetooth/controller/libsubsys__bluetooth__controller.a(ctrl.c.obj)
                0x00015f00                ll_terminate_ind_send
 .text.ll_tx_pwr_lvl_get
                0x00015f2c       0x14 zephyr/subsys/bluetooth/controller/libsubsys__bluetooth__controller.a(ctrl.c.obj)
                0x00015f2c                ll_tx_pwr_lvl_get
 .text.ll_apto_get
                0x00015f40       0x28 zephyr/subsys/bluetooth/controller/libsubsys__bluetooth__controller.a(ctrl.c.obj)
                0x00015f40                ll_apto_get
 .text.ll_apto_set
                0x00015f68       0x2c zephyr/subsys/bluetooth/controller/libsubsys__bluetooth__controller.a(ctrl.c.obj)
                0x00015f68                ll_apto_set
 .text.ll_length_req_send
                0x00015f94       0x4a zephyr/subsys/bluetooth/controller/libsubsys__bluetooth__controller.a(ctrl.c.obj)
                0x00015f94                ll_length_req_send
 .text.ll_length_max_get
                0x00015fde       0x12 zephyr/subsys/bluetooth/controller/libsubsys__bluetooth__controller.a(ctrl.c.obj)
                0x00015fde                ll_length_max_get
 .text.ll_phy_get
                0x00015ff0       0x28 zephyr/subsys/bluetooth/controller/libsubsys__bluetooth__controller.a(ctrl.c.obj)
                0x00015ff0                ll_phy_get
 .text.ll_phy_req_send
                0x00016018       0x62 zephyr/subsys/bluetooth/controller/libsubsys__bluetooth__controller.a(ctrl.c.obj)
                0x00016018                ll_phy_req_send
 .text.swi5_nrf5_isr
                0x0001607a        0x6 zephyr/subsys/bluetooth/controller/libsubsys__bluetooth__controller.a(ll.c.obj)
 .text.radio_nrf5_isr
                0x00016080       0x22 zephyr/subsys/bluetooth/controller/libsubsys__bluetooth__controller.a(ll.c.obj)
                0x00016080                radio_nrf5_isr
 .text.radio_active_callback
                0x000160a2        0x2 zephyr/subsys/bluetooth/controller/libsubsys__bluetooth__controller.a(ll.c.obj)
                0x000160a2                radio_active_callback
 .text.ll_adv_data_set
                0x000160a4       0xb2 zephyr/subsys/bluetooth/controller/libsubsys__bluetooth__controller.a(ll_adv.c.obj)
                0x000160a4                ll_adv_data_set
 .text.ll_adv_scan_rsp_set
                0x00016156       0x8e zephyr/subsys/bluetooth/controller/libsubsys__bluetooth__controller.a(ll_adv.c.obj)
                0x00016156                ll_adv_scan_rsp_set
 .text.rl_access_check.constprop.1
                0x000161e4       0x1a zephyr/subsys/bluetooth/controller/libsubsys__bluetooth__controller.a(ll_filter.c.obj)
 .text.ll_wl_size_get
                0x000161fe        0x4 zephyr/subsys/bluetooth/controller/libsubsys__bluetooth__controller.a(ll_filter.c.obj)
                0x000161fe                ll_wl_size_get
 .text.ll_rl_size_get
                0x00016202        0x4 zephyr/subsys/bluetooth/controller/libsubsys__bluetooth__controller.a(ll_filter.c.obj)
                0x00016202                ll_rl_size_get
 .text.ecb_encrypt
                0x00016206       0x42 zephyr/subsys/bluetooth/controller/libsubsys__bluetooth__controller.a(ecb.c.obj)
                0x00016206                ecb_encrypt
 .text.radio_setup
                0x00016248       0x44 zephyr/subsys/bluetooth/controller/libsubsys__bluetooth__controller.a(radio.c.obj)
                0x00016248                radio_setup
 .text.radio_tx_ready_delay_get
                0x0001628c        0xa zephyr/subsys/bluetooth/controller/libsubsys__bluetooth__controller.a(radio.c.obj)
                0x0001628c                radio_tx_ready_delay_get
 .text.radio_tx_chain_delay_get
                0x00016296        0x4 zephyr/subsys/bluetooth/controller/libsubsys__bluetooth__controller.a(radio.c.obj)
                0x00016296                radio_tx_chain_delay_get
 .text.radio_rx_ready_delay_get
                0x0001629a        0x4 zephyr/subsys/bluetooth/controller/libsubsys__bluetooth__controller.a(radio.c.obj)
                0x0001629a                radio_rx_ready_delay_get
 .text.radio_rx_chain_delay_get
                0x0001629e        0xa zephyr/subsys/bluetooth/controller/libsubsys__bluetooth__controller.a(radio.c.obj)
                0x0001629e                radio_rx_chain_delay_get
 .text.mayfly_enable_cb
                0x000162a8       0x1c zephyr/subsys/bluetooth/controller/libsubsys__bluetooth__controller.a(mayfly.c.obj)
                0x000162a8                mayfly_enable_cb
 .text.mayfly_is_enabled
                0x000162c4       0x1c zephyr/subsys/bluetooth/controller/libsubsys__bluetooth__controller.a(mayfly.c.obj)
                0x000162c4                mayfly_is_enabled
 .text.mayfly_prio_is_equal
                0x000162e0       0x22 zephyr/subsys/bluetooth/controller/libsubsys__bluetooth__controller.a(mayfly.c.obj)
                0x000162e0                mayfly_prio_is_equal
 .text.hal_ticker_instance0_trigger_set
                0x00016302        0x8 zephyr/subsys/bluetooth/controller/libsubsys__bluetooth__controller.a(ticker.c.obj)
                0x00016302                hal_ticker_instance0_trigger_set
 .text.fixed_data_unref
                0x0001630a        0x2 zephyr/subsys/net/libsubsys__net.a(buf.c.obj)
 .text.net_buf_alloc_fixed
                0x0001630c        0xc zephyr/subsys/net/libsubsys__net.a(buf.c.obj)
                0x0001630c                net_buf_alloc_fixed
 .text.net_buf_get
                0x00016318       0x32 zephyr/subsys/net/libsubsys__net.a(buf.c.obj)
                0x00016318                net_buf_get
 .text.net_buf_simple_reserve
                0x0001634a        0x8 zephyr/subsys/net/libsubsys__net.a(buf.c.obj)
                0x0001634a                net_buf_simple_reserve
 .text.net_buf_put
                0x00016352       0x1a zephyr/subsys/net/libsubsys__net.a(buf.c.obj)
                0x00016352                net_buf_put
 .text.net_buf_ref
                0x0001636c        0x8 zephyr/subsys/net/libsubsys__net.a(buf.c.obj)
                0x0001636c                net_buf_ref
 .text.net_buf_simple_add
                0x00016374        0xc zephyr/subsys/net/libsubsys__net.a(buf.c.obj)
                0x00016374                net_buf_simple_add
 .text.net_buf_simple_add_mem
                0x00016380       0x12 zephyr/subsys/net/libsubsys__net.a(buf.c.obj)
                0x00016380                net_buf_simple_add_mem
 .text.net_buf_simple_add_u8
                0x00016392       0x10 zephyr/subsys/net/libsubsys__net.a(buf.c.obj)
                0x00016392                net_buf_simple_add_u8
 .text.net_buf_simple_push
                0x000163a2       0x10 zephyr/subsys/net/libsubsys__net.a(buf.c.obj)
                0x000163a2                net_buf_simple_push
 .text.net_buf_simple_pull
                0x000163b2       0x10 zephyr/subsys/net/libsubsys__net.a(buf.c.obj)
                0x000163b2                net_buf_simple_pull
 .text.net_buf_simple_pull_mem
                0x000163c2       0x10 zephyr/subsys/net/libsubsys__net.a(buf.c.obj)
                0x000163c2                net_buf_simple_pull_mem
 .text.net_buf_simple_pull_le16
                0x000163d2       0x10 zephyr/subsys/net/libsubsys__net.a(buf.c.obj)
                0x000163d2                net_buf_simple_pull_le16
 .text.net_buf_simple_headroom
                0x000163e2        0x8 zephyr/subsys/net/libsubsys__net.a(buf.c.obj)
                0x000163e2                net_buf_simple_headroom
 .text.net_buf_simple_tailroom
                0x000163ea       0x10 zephyr/subsys/net/libsubsys__net.a(buf.c.obj)
                0x000163ea                net_buf_simple_tailroom
 .text.nrf_gpio_cfg_sense_set
                0x000163fa       0x20 zephyr/drivers/gpio/libdrivers__gpio.a(gpio_nrfx.c.obj)
 .text.gpio_nrfx_write
                0x0001641a       0x3c zephyr/drivers/gpio/libdrivers__gpio.a(gpio_nrfx.c.obj)
 .text.gpio_nrfx_read
                0x00016456       0x30 zephyr/drivers/gpio/libdrivers__gpio.a(gpio_nrfx.c.obj)
 .text.gpio_nrfx_manage_callback
                0x00016486       0x56 zephyr/drivers/gpio/libdrivers__gpio.a(gpio_nrfx.c.obj)
 .text.gpio_nrfx_config
                0x000164dc      0x126 zephyr/drivers/gpio/libdrivers__gpio.a(gpio_nrfx.c.obj)
 .text.gpio_nrfx_pin_disable_callback
                0x00016602       0x42 zephyr/drivers/gpio/libdrivers__gpio.a(gpio_nrfx.c.obj)
 .text.gpio_nrfx_pin_enable_callback
                0x00016644       0x40 zephyr/drivers/gpio/libdrivers__gpio.a(gpio_nrfx.c.obj)
 .text.pwm_nrfx_pin_set
                0x00016684      0x11a zephyr/drivers/pwm/libdrivers__pwm.a(pwm_nrfx.c.obj)
 .text.nrf_uarte_event_clear
                0x0001679e       0x10 zephyr/drivers/serial/libdrivers__serial.a(uart_nrfx_uarte.c.obj)
 .text.uarte_nrfx_isr_int
                0x000167ae       0x30 zephyr/drivers/serial/libdrivers__serial.a(uart_nrfx_uarte.c.obj)
 .text.uarte_nrfx_config_get
                0x000167de       0x10 zephyr/drivers/serial/libdrivers__serial.a(uart_nrfx_uarte.c.obj)
 .text.uarte_nrfx_err_check
                0x000167ee       0x16 zephyr/drivers/serial/libdrivers__serial.a(uart_nrfx_uarte.c.obj)
 .text.uarte_nrfx_poll_in
                0x00016804       0x2c zephyr/drivers/serial/libdrivers__serial.a(uart_nrfx_uarte.c.obj)
 .text.uarte_nrfx_poll_out
                0x00016830       0x32 zephyr/drivers/serial/libdrivers__serial.a(uart_nrfx_uarte.c.obj)
 .text.uarte_nrfx_fifo_fill
                0x00016862       0x4c zephyr/drivers/serial/libdrivers__serial.a(uart_nrfx_uarte.c.obj)
 .text.uarte_nrfx_fifo_read
                0x000168ae       0x2a zephyr/drivers/serial/libdrivers__serial.a(uart_nrfx_uarte.c.obj)
 .text.uarte_nrfx_irq_tx_enable
                0x000168d8       0x18 zephyr/drivers/serial/libdrivers__serial.a(uart_nrfx_uarte.c.obj)
 .text.uarte_nrfx_irq_tx_disable
                0x000168f0        0xa zephyr/drivers/serial/libdrivers__serial.a(uart_nrfx_uarte.c.obj)
 .text.uarte_nrfx_irq_tx_ready_complete
                0x000168fa       0x16 zephyr/drivers/serial/libdrivers__serial.a(uart_nrfx_uarte.c.obj)
 .text.uarte_nrfx_irq_rx_ready
                0x00016910       0x12 zephyr/drivers/serial/libdrivers__serial.a(uart_nrfx_uarte.c.obj)
 .text.uarte_nrfx_irq_rx_enable
                0x00016922        0xe zephyr/drivers/serial/libdrivers__serial.a(uart_nrfx_uarte.c.obj)
 .text.uarte_nrfx_irq_rx_disable
                0x00016930        0xe zephyr/drivers/serial/libdrivers__serial.a(uart_nrfx_uarte.c.obj)
 .text.uarte_nrfx_irq_err_enable
                0x0001693e       0x10 zephyr/drivers/serial/libdrivers__serial.a(uart_nrfx_uarte.c.obj)
 .text.uarte_nrfx_irq_err_disable
                0x0001694e       0x10 zephyr/drivers/serial/libdrivers__serial.a(uart_nrfx_uarte.c.obj)
 .text.uarte_nrfx_irq_update
                0x0001695e        0x4 zephyr/drivers/serial/libdrivers__serial.a(uart_nrfx_uarte.c.obj)
 .text.uarte_nrfx_irq_callback_set
                0x00016962        0xa zephyr/drivers/serial/libdrivers__serial.a(uart_nrfx_uarte.c.obj)
 .text.uarte_nrfx_irq_is_pending
                0x0001696c       0x38 zephyr/drivers/serial/libdrivers__serial.a(uart_nrfx_uarte.c.obj)
 .text.uarte_0_init
                0x000169a4       0x96 zephyr/drivers/serial/libdrivers__serial.a(uart_nrfx_uarte.c.obj)
 .text.z_arch_system_halt
                0x00016a3a       0x18 zephyr/kernel/libkernel.a(fatal.c.obj)
                0x00016a3a                z_arch_system_halt
 .text.z_sys_power_save_idle_exit
                0x00016a52        0x4 zephyr/kernel/libkernel.a(idle.c.obj)
                0x00016a52                z_sys_power_save_idle_exit
 .text.k_mem_pool_malloc
                0x00016a56       0x28 zephyr/kernel/libkernel.a(mempool.c.obj)
                0x00016a56                k_mem_pool_malloc
 .text.k_free   0x00016a7e        0xa zephyr/kernel/libkernel.a(mempool.c.obj)
                0x00016a7e                k_free
 .text.queue_insert
                0x00016a88       0xa2 zephyr/kernel/libkernel.a(queue.c.obj)
 .text.z_queue_node_peek
                0x00016b2a       0x18 zephyr/kernel/libkernel.a(queue.c.obj)
                0x00016b2a                z_queue_node_peek
 .text.z_impl_k_queue_init
                0x00016b42       0x10 zephyr/kernel/libkernel.a(queue.c.obj)
                0x00016b42                z_impl_k_queue_init
 .text.k_queue_append
                0x00016b52        0xa zephyr/kernel/libkernel.a(queue.c.obj)
                0x00016b52                k_queue_append
 .text.k_queue_prepend
                0x00016b5c        0xa zephyr/kernel/libkernel.a(queue.c.obj)
                0x00016b5c                k_queue_prepend
 .text.k_queue_append_list
                0x00016b66       0x3e zephyr/kernel/libkernel.a(queue.c.obj)
                0x00016b66                k_queue_append_list
 .text.z_impl_k_queue_get
                0x00016ba4       0xd0 zephyr/kernel/libkernel.a(queue.c.obj)
                0x00016ba4                z_impl_k_queue_get
 .text.z_is_thread_ready
                0x00016c74       0x12 zephyr/kernel/libkernel.a(sched.c.obj)
 .text.z_is_t1_higher_prio_than_t2
                0x00016c86       0x12 zephyr/kernel/libkernel.a(sched.c.obj)
                0x00016c86                z_is_t1_higher_prio_than_t2
 .text.z_unpend_thread_no_timeout
                0x00016c98       0x32 zephyr/kernel/libkernel.a(sched.c.obj)
                0x00016c98                z_unpend_thread_no_timeout
 .text.z_reschedule
                0x00016cca       0x1e zephyr/kernel/libkernel.a(sched.c.obj)
                0x00016cca                z_reschedule
 .text.z_reschedule_irqlock
                0x00016ce8       0x20 zephyr/kernel/libkernel.a(sched.c.obj)
                0x00016ce8                z_reschedule_irqlock
 .text.z_reschedule_unlocked
                0x00016d08       0x14 zephyr/kernel/libkernel.a(sched.c.obj)
 .text.z_unpend_thread
                0x00016d1c       0x3c zephyr/kernel/libkernel.a(sched.c.obj)
                0x00016d1c                z_unpend_thread
 .text.z_priq_dumb_best
                0x00016d58        0xc zephyr/kernel/libkernel.a(sched.c.obj)
                0x00016d58                z_priq_dumb_best
 .text.z_thread_timeout
                0x00016d64       0x62 zephyr/kernel/libkernel.a(sched.c.obj)
                0x00016d64                z_thread_timeout
 .text.z_unpend_first_thread
                0x00016dc6       0x5a zephyr/kernel/libkernel.a(sched.c.obj)
                0x00016dc6                z_unpend_first_thread
 .text.z_unpend_all
                0x00016e20       0x2c zephyr/kernel/libkernel.a(sched.c.obj)
                0x00016e20                z_unpend_all
 .text.z_impl_k_sleep
                0x00016e4c       0x3e zephyr/kernel/libkernel.a(sched.c.obj)
                0x00016e4c                z_impl_k_sleep
 .text.z_impl_k_sem_init
                0x00016e8a       0x12 zephyr/kernel/libkernel.a(sem.c.obj)
                0x00016e8a                z_impl_k_sem_init
 .text.z_is_thread_ready
                0x00016e9c       0x12 zephyr/kernel/libkernel.a(thread.c.obj)
 .text.z_impl_k_thread_name_set
                0x00016eae        0x6 zephyr/kernel/libkernel.a(thread.c.obj)
                0x00016eae                z_impl_k_thread_name_set
 .text.k_thread_name_get
                0x00016eb4        0x4 zephyr/kernel/libkernel.a(thread.c.obj)
                0x00016eb4                k_thread_name_get
 .text.z_thread_single_abort
                0x00016eb8       0x3e zephyr/kernel/libkernel.a(thread.c.obj)
                0x00016eb8                z_thread_single_abort
 .text.z_init_thread_base
                0x00016ef6       0x10 zephyr/kernel/libkernel.a(thread.c.obj)
                0x00016ef6                z_init_thread_base
 .text.k_work_submit_to_queue
                0x00016f06       0x30 zephyr/kernel/libkernel.a(work_q.c.obj)
 .text.work_timeout
                0x00016f36        0xa zephyr/kernel/libkernel.a(work_q.c.obj)
 .text.work_cancel
                0x00016f40       0x84 zephyr/kernel/libkernel.a(work_q.c.obj)
 .text.k_delayed_work_init
                0x00016fc4       0x10 zephyr/kernel/libkernel.a(work_q.c.obj)
                0x00016fc4                k_delayed_work_init
 .text.k_delayed_work_cancel
                0x00016fd4       0x2a zephyr/kernel/libkernel.a(work_q.c.obj)
                0x00016fd4                k_delayed_work_cancel
 .text.z_abort_timeout
                0x00016ffe       0x2c zephyr/kernel/libkernel.a(timeout.c.obj)
                0x00016ffe                z_abort_timeout
 .text.z_get_next_timeout_expiry
                0x0001702a       0x20 zephyr/kernel/libkernel.a(timeout.c.obj)
                0x0001702a                z_get_next_timeout_expiry
 .text.z_set_timeout_expiry
                0x0001704a       0x34 zephyr/kernel/libkernel.a(timeout.c.obj)
                0x0001704a                z_set_timeout_expiry
 .text.z_tick_get_32
                0x0001707e        0x8 zephyr/kernel/libkernel.a(timeout.c.obj)
                0x0001707e                z_tick_get_32
 .text.z_impl_k_uptime_get_32
                0x00017086       0x16 zephyr/kernel/libkernel.a(timeout.c.obj)
                0x00017086                z_impl_k_uptime_get_32
 .text.z_impl_k_uptime_get
                0x0001709c       0x1c zephyr/kernel/libkernel.a(timeout.c.obj)
                0x0001709c                z_impl_k_uptime_get
 .text.clear_event_registrations
                0x000170b8       0x56 zephyr/kernel/libkernel.a(poll.c.obj)
 .text.signal_poll_event
                0x0001710e       0x58 zephyr/kernel/libkernel.a(poll.c.obj)
 .text.add_event
                0x00017166       0x5e zephyr/kernel/libkernel.a(poll.c.obj)
 .text.k_poll_event_init
                0x000171c4       0x2c zephyr/kernel/libkernel.a(poll.c.obj)
                0x000171c4                k_poll_event_init
 .text.z_handle_obj_poll_events
                0x000171f0       0x1e zephyr/kernel/libkernel.a(poll.c.obj)
                0x000171f0                z_handle_obj_poll_events
 .text._OffsetAbsSyms
                0x0001720e        0x2 zephyr/CMakeFiles/offsets.dir/arch/arm/core/offsets/offsets.c.obj
                0x0001720e                _OffsetAbsSyms
 *(SORT_BY_ALIGNMENT(.gnu.linkonce.t.*))
 *(SORT_BY_ALIGNMENT(.glue_7t))
 .glue_7t       0x00017210        0x0 linker stubs
 *(SORT_BY_ALIGNMENT(.glue_7))
 .glue_7        0x00017210        0x0 linker stubs
 *(SORT_BY_ALIGNMENT(.vfp11_veneer))
 .vfp11_veneer  0x00017210        0x0 linker stubs
 *(SORT_BY_ALIGNMENT(.v4_bx))
 .v4_bx         0x00017210        0x0 linker stubs
                0x00017210                _image_text_end = .

.ARM.exidx      0x00017210        0x8
                0x00017210                __exidx_start = .
 *(SORT_BY_ALIGNMENT(.ARM.exidx*) SORT_BY_ALIGNMENT(gnu.linkonce.armexidx.*))
 .ARM.exidx     0x00017210        0x8 c:/program files (x86)/gnu tools arm embedded/7 2018-q2-update/bin/../lib/gcc/arm-none-eabi/7.3.1/thumb/v7e-m\libgcc.a(_udivmoddi4.o)
                0x00017218                __exidx_end = .
                0x00017218                _image_rodata_start = .

sw_isr_table    0x00017218       0xf0
                0x00017218                . = ALIGN (0x0)
 *(SORT_BY_ALIGNMENT(.gnu.linkonce.sw_isr_table))
 .gnu.linkonce.sw_isr_table
                0x00017218       0xf0 zephyr/libzephyr.a(isr_tables.c.obj)
                0x00017218                _sw_isr_table

app_shmem_regions
                0x00017308        0x0
                0x00017308                __app_shmem_regions_start = .
 *(SORT_BY_NAME(SORT_BY_ALIGNMENT(.app_regions.*)))
                0x00017308                __app_shmem_regions_end = .

devconfig       0x00017308       0x9c
                0x00017308                __devconfig_start = .
 *(SORT_BY_ALIGNMENT(.devconfig.*))
 .devconfig.init
                0x00017308        0xc zephyr/libzephyr.a(soc.c.obj)
 .devconfig.init
                0x00017314        0xc zephyr/libzephyr.a(uart_console.c.obj)
 .devconfig.init
                0x00017320       0x18 zephyr/libzephyr.a(nrf_power_clock.c.obj)
 .devconfig.init
                0x00017338        0xc zephyr/libzephyr.a(sys_clock_init.c.obj)
 .devconfig.init
                0x00017344        0xc zephyr/arch/arm/core/cortex_m/mpu/libarch__arm__core__cortex_m__mpu.a(arm_mpu.c.obj)
 .devconfig.init
                0x00017350        0xc zephyr/subsys/bluetooth/controller/libsubsys__bluetooth__controller.a(hci_driver.c.obj)
 .devconfig.init
                0x0001735c        0xc zephyr/drivers/gpio/libdrivers__gpio.a(gpio_nrfx.c.obj)
 .devconfig.init
                0x00017368        0xc zephyr/drivers/pwm/libdrivers__pwm.a(pwm_nrfx.c.obj)
 .devconfig.init
                0x00017374        0xc zephyr/drivers/serial/libdrivers__serial.a(uart_nrfx_uarte.c.obj)
 .devconfig.init
                0x00017380        0xc zephyr/drivers/entropy/libdrivers__entropy.a(entropy_nrf5.c.obj)
 .devconfig.init
                0x0001738c        0xc zephyr/kernel/libkernel.a(mempool.c.obj)
 .devconfig.init
                0x00017398        0xc zephyr/kernel/libkernel.a(system_work_q.c.obj)
 *(SORT_BY_NAME(SORT_BY_ALIGNMENT(.devconfig*)))
                0x000173a4                __devconfig_end = .

net_l2          0x000173a4        0x0
                0x000173a4                __net_l2_start = .
 *(SORT_BY_ALIGNMENT(.net_l2.init))
 *(SORT_BY_NAME(SORT_BY_ALIGNMENT(.net_l2.init*)))
                0x000173a4                __net_l2_end = .

_bt_channels_area
                0x000173a4       0x18
                0x000173a4                _bt_l2cap_fixed_chan_list_start = .
 *(SORT_BY_NAME(SORT_BY_ALIGNMENT(._bt_l2cap_fixed_chan.static.*)))
 ._bt_l2cap_fixed_chan.static.att_fixed_chan
                0x000173a4        0x8 zephyr/subsys/bluetooth/host/libsubsys__bluetooth__host.a(att.c.obj)
                0x000173a4                att_fixed_chan
 ._bt_l2cap_fixed_chan.static.le_fixed_chan
                0x000173ac        0x8 zephyr/subsys/bluetooth/host/libsubsys__bluetooth__host.a(l2cap.c.obj)
                0x000173ac                le_fixed_chan
 ._bt_l2cap_fixed_chan.static.smp_fixed_chan
                0x000173b4        0x8 zephyr/subsys/bluetooth/host/libsubsys__bluetooth__host.a(smp.c.obj)
                0x000173b4                smp_fixed_chan
                0x000173bc                _bt_l2cap_fixed_chan_list_end = .

_bt_services_area
                0x000173bc       0x18
                0x000173bc                _bt_gatt_service_static_list_start = .
 *(SORT_BY_NAME(SORT_BY_ALIGNMENT(._bt_gatt_service_static.static.*)))
 ._bt_gatt_service_static.static._1_gatt_svc
                0x000173bc        0x8 zephyr/subsys/bluetooth/host/libsubsys__bluetooth__host.a(gatt.c.obj)
                0x000173bc                _1_gatt_svc
 ._bt_gatt_service_static.static._2_gap_svc
                0x000173c4        0x8 zephyr/subsys/bluetooth/host/libsubsys__bluetooth__host.a(gatt.c.obj)
                0x000173c4                _2_gap_svc
 ._bt_gatt_service_static.static.nus_svc
                0x000173cc        0x8 zephyr/libzephyr.a(nus.c.obj)
                0x000173cc                nus_svc
                0x000173d4                _bt_gatt_service_static_list_end = .

log_const_sections
                0x000173d4        0x0
                0x000173d4                __log_const_start = .
 *(SORT_BY_NAME(SORT_BY_ALIGNMENT(.log_const_*)))
                0x000173d4                __log_const_end = .

log_backends_sections
                0x000173d4        0x0
                0x000173d4                __log_backends_start = .
 *(SORT_BY_ALIGNMENT(._log_backend.*))
                0x000173d4                __log_backends_end = .

shell_root_cmds_sections
                0x000173d4        0x0
                0x000173d4                __shell_root_cmds_start = .
 *(SORT_BY_NAME(SORT_BY_ALIGNMENT(.shell_root_cmd_*)))
                0x000173d4                __shell_root_cmds_end = .

font_entry_sections
                0x000173d4        0x0
                0x000173d4                __font_entry_start = .
 *(SORT_BY_NAME(SORT_BY_ALIGNMENT(._cfb_font.*)))
                0x000173d4                __font_entry_end = .

rodata          0x000173d4     0x10d4
 *(SORT_BY_ALIGNMENT(.rodata))
 .rodata        0x000173d4       0x2c zephyr/libzephyr.a(aes_encrypt.c.obj)
 .rodata        0x00017400        0x8 zephyr/subsys/bluetooth/host/libsubsys__bluetooth__host.a(conn.c.obj)
 .rodata        0x00017408        0x6 zephyr/subsys/bluetooth/host/libsubsys__bluetooth__host.a(hci_core.c.obj)
 .rodata        0x0001740e        0x2 zephyr/subsys/bluetooth/host/libsubsys__bluetooth__host.a(smp.c.obj)
 .rodata        0x00017410       0x1a zephyr/subsys/bluetooth/controller/libsubsys__bluetooth__controller.a(ctrl.c.obj)
 *(SORT_BY_ALIGNMENT(.rodata.*))
 *fill*         0x0001742a        0x2 
 .rodata.ad     0x0001742c       0x10 app/libapp.a(main.c.obj)
 .rodata.led_pins
                0x0001743c       0x10 app/libapp.a(main.c.obj)
 .rodata.sd     0x0001744c        0x8 app/libapp.a(main.c.obj)
 .rodata.mpu_config
                0x00017454        0x8 zephyr/libzephyr.a(mpu_regions.c.obj)
                0x00017454                mpu_config
 .rodata.mpu_regions
                0x0001745c       0x18 zephyr/libzephyr.a(mpu_regions.c.obj)
 .rodata.curve_secp256r1
                0x00017474       0xb0 zephyr/libzephyr.a(ecc.c.obj)
 .rodata._k32src_clock_control_api
                0x00017524       0x14 zephyr/libzephyr.a(nrf_power_clock.c.obj)
 .rodata._m16src_clock_control_api
                0x00017538       0x14 zephyr/libzephyr.a(nrf_power_clock.c.obj)
 .rodata.attr_nus_svc
                0x0001754c       0x78 zephyr/libzephyr.a(nus.c.obj)
                0x0001754c                attr_nus_svc
 .rodata.curve_secp256r1
                0x000175c4       0xb0 zephyr/subsys/bluetooth/host/libsubsys__bluetooth__host.a(hci_ecc.c.obj)
 .rodata.debug_private_key
                0x00017674       0x20 zephyr/subsys/bluetooth/host/libsubsys__bluetooth__host.a(hci_ecc.c.obj)
 .rodata.meta_events
                0x00017694       0x50 zephyr/subsys/bluetooth/host/libsubsys__bluetooth__host.a(hci_core.c.obj)
 .rodata.net_buf_fixed_alloc_discardable_pool
                0x000176e4        0x8 zephyr/subsys/bluetooth/host/libsubsys__bluetooth__host.a(hci_core.c.obj)
 .rodata.net_buf_fixed_alloc_hci_cmd_pool
                0x000176ec        0x8 zephyr/subsys/bluetooth/host/libsubsys__bluetooth__host.a(hci_core.c.obj)
 .rodata.net_buf_fixed_alloc_hci_rx_pool
                0x000176f4        0x8 zephyr/subsys/bluetooth/host/libsubsys__bluetooth__host.a(hci_core.c.obj)
 .rodata.net_buf_fixed_alloc_num_complete_pool
                0x000176fc        0x8 zephyr/subsys/bluetooth/host/libsubsys__bluetooth__host.a(hci_core.c.obj)
 .rodata.net_buf_fixed_discardable_pool
                0x00017704        0x8 zephyr/subsys/bluetooth/host/libsubsys__bluetooth__host.a(hci_core.c.obj)
 .rodata.net_buf_fixed_hci_cmd_pool
                0x0001770c        0x8 zephyr/subsys/bluetooth/host/libsubsys__bluetooth__host.a(hci_core.c.obj)
 .rodata.net_buf_fixed_hci_rx_pool
                0x00017714        0x8 zephyr/subsys/bluetooth/host/libsubsys__bluetooth__host.a(hci_core.c.obj)
 .rodata.net_buf_fixed_num_complete_pool
                0x0001771c        0x8 zephyr/subsys/bluetooth/host/libsubsys__bluetooth__host.a(hci_core.c.obj)
 .rodata.normal_events
                0x00017724       0x28 zephyr/subsys/bluetooth/host/libsubsys__bluetooth__host.a(hci_core.c.obj)
 .rodata.prio_events
                0x0001774c       0x18 zephyr/subsys/bluetooth/host/libsubsys__bluetooth__host.a(hci_core.c.obj)
 .rodata.net_buf_fixed_acl_tx_pool
                0x00017764        0x8 zephyr/subsys/bluetooth/host/libsubsys__bluetooth__host.a(conn.c.obj)
 .rodata.net_buf_fixed_alloc_acl_tx_pool
                0x0001776c        0x8 zephyr/subsys/bluetooth/host/libsubsys__bluetooth__host.a(conn.c.obj)
 .rodata.net_buf_fixed_alloc_frag_pool
                0x00017774        0x8 zephyr/subsys/bluetooth/host/libsubsys__bluetooth__host.a(conn.c.obj)
 .rodata.net_buf_fixed_frag_pool
                0x0001777c        0x8 zephyr/subsys/bluetooth/host/libsubsys__bluetooth__host.a(conn.c.obj)
 .rodata.CSWTCH.152
                0x00017784       0x14 zephyr/subsys/bluetooth/host/libsubsys__bluetooth__host.a(att.c.obj)
 .rodata.handlers
                0x00017798       0x68 zephyr/subsys/bluetooth/host/libsubsys__bluetooth__host.a(att.c.obj)
 .rodata.attr__1_gatt_svc
                0x00017800       0x14 zephyr/subsys/bluetooth/host/libsubsys__bluetooth__host.a(gatt.c.obj)
                0x00017800                attr__1_gatt_svc
 .rodata.attr__2_gap_svc
                0x00017814       0x8c zephyr/subsys/bluetooth/host/libsubsys__bluetooth__host.a(gatt.c.obj)
                0x00017814                attr__2_gap_svc
 .rodata.handlers
                0x000178a0       0x70 zephyr/subsys/bluetooth/host/libsubsys__bluetooth__host.a(smp.c.obj)
 .rodata.drv    0x00017910       0x14 zephyr/subsys/bluetooth/controller/libsubsys__bluetooth__controller.a(hci_driver.c.obj)
 .rodata.net_buf_fixed_cb
                0x00017924        0xc zephyr/subsys/net/libsubsys__net.a(buf.c.obj)
                0x00017924                net_buf_fixed_cb
 .rodata.gpio_nrfx_drv_api_funcs
                0x00017930       0x1c zephyr/drivers/gpio/libdrivers__gpio.a(gpio_nrfx.c.obj)
 .rodata.gpio_nrfx_p0_cfg
                0x0001794c        0x8 zephyr/drivers/gpio/libdrivers__gpio.a(gpio_nrfx.c.obj)
 .rodata.pwm_nrfx_0z_config
                0x00017954       0x24 zephyr/drivers/pwm/libdrivers__pwm.a(pwm_nrfx.c.obj)
 .rodata.pwm_nrfx_drv_api_funcs
                0x00017978        0x8 zephyr/drivers/pwm/libdrivers__pwm.a(pwm_nrfx.c.obj)
 .rodata.uart_nrfx_uarte_driver_api
                0x00017980       0x4c zephyr/drivers/serial/libdrivers__serial.a(uart_nrfx_uarte.c.obj)
 .rodata.uarte_0z_config
                0x000179cc        0x8 zephyr/drivers/serial/libdrivers__serial.a(uart_nrfx_uarte.c.obj)
 .rodata.entropy_nrf5_api_funcs
                0x000179d4        0x8 zephyr/drivers/entropy/libdrivers__entropy.a(entropy_nrf5.c.obj)
 .rodata.button_pins
                0x000179dc       0x20 zephyr/modules/nrf/lib/dk_buttons_and_leds/lib..__nrf__lib__dk_buttons_and_leds.a(dk_buttons_and_leds.c.obj)
 .rodata.config_levels.9427
                0x000179fc       0x14 zephyr/kernel/libkernel.a(device.c.obj)
 .rodata._k_neg_eagain
                0x00017a10        0x4 zephyr/kernel/libkernel.a(errno.c.obj)
                0x00017a10                _k_neg_eagain
 .rodata.CSWTCH.2
                0x00017a14       0x14 zephyr/kernel/libkernel.a(fatal.c.obj)
 .rodata._idle_thread
                0x00017a28        0x4 zephyr/kernel/libkernel.a(init.c.obj)
                0x00017a28                _idle_thread
 .rodata.gc_lookup_ppm
                0x00017a2c       0x10 zephyr/subsys/bluetooth/controller/libsubsys__bluetooth__controller.a(ctrl.c.obj)
 .rodata.__func__.11998
                0x00017a3c        0xa app/libapp.a(main.c.obj)
 .rodata.auth_cancel.str1.1
                0x00017a46       0x17 app/libapp.a(main.c.obj)
 .rodata.auth_done.str1.1
                0x00017a5d        0x6 app/libapp.a(main.c.obj)
 .rodata.auth_passkey_confirm.str1.1
                0x00017a63       0x46 app/libapp.a(main.c.obj)
 .rodata.ble_write_thread.str1.1
                0x00017aa9       0x29 app/libapp.a(main.c.obj)
 .rodata.bt_addr_le_to_str.constprop.3.str1.1
                0x00017ad2       0x4c app/libapp.a(main.c.obj)
 .rodata.bt_ready.str1.1
                0x00017b1e       0x77 app/libapp.a(main.c.obj)
 .rodata.bt_receive_cb.str1.1
                0x00017b95       0x44 app/libapp.a(main.c.obj)
 .rodata.configure_buttons.str1.1
                0x00017bd9       0x1f app/libapp.a(main.c.obj)
 .rodata.connected.str1.1
                0x00017bf8       0x27 app/libapp.a(main.c.obj)
 .rodata.disconnected.str1.1
                0x00017c1f       0x1a app/libapp.a(main.c.obj)
 .rodata.error.str1.1
                0x00017c39        0x7 app/libapp.a(main.c.obj)
 .rodata.led_blink_thread.str1.1
                0x00017c40       0x75 app/libapp.a(main.c.obj)
 .rodata.pairing_complete.str1.1
                0x00017cb5       0x1d app/libapp.a(main.c.obj)
 .rodata.pairing_failed.str1.1
                0x00017cd2       0x19 app/libapp.a(main.c.obj)
 .rodata.pwm_thread.str1.1
                0x00017ceb       0x41 app/libapp.a(main.c.obj)
 .rodata.security_changed.str1.1
                0x00017d2c       0x21 app/libapp.a(main.c.obj)
 .rodata.str1.1
                0x00017d4d       0x4e app/libapp.a(main.c.obj)
 .rodata.uart_cb.str1.1
                0x00017d9b       0x2a app/libapp.a(main.c.obj)
 .rodata.init_gpio.str1.1
                0x00017dc5       0x4f app/libapp.a(board_functions.c.obj)
                                 0x56 (size before relaxing)
 .rodata.str1.1
                0x00017e14       0x4f zephyr/libzephyr.a(soc.c.obj)
                                  0x1 (size before relaxing)
 .rodata.str1.1
                0x00017e14        0xf zephyr/libzephyr.a(mpu_regions.c.obj)
 .rodata.sbox   0x00017e23      0x100 zephyr/libzephyr.a(aes_encrypt.c.obj)
 .rodata.sys_rand32_get.str1.1
                0x00017f23        0xa zephyr/libzephyr.a(rand32_entropy_device.c.obj)
 .rodata.str1.1
                0x00017f2d        0x1 zephyr/libzephyr.a(uart_console.c.obj)
 .rodata.uart_console_init.str1.1
                0x00017f2d        0x7 zephyr/libzephyr.a(uart_console.c.obj)
 .rodata.str1.1
                0x00017f2d       0x14 zephyr/libzephyr.a(nrf_power_clock.c.obj)
 .rodata.str1.1
                0x00017f41        0xa zephyr/libzephyr.a(sys_clock_init.c.obj)
 .rodata.z_clock_driver_init.str1.1
                0x00017f4b        0xa zephyr/libzephyr.a(nrf_rtc_timer.c.obj)
 .rodata.nuslc_ccc_cfg_changed.str1.1
                0x00017f4b       0x4c zephyr/libzephyr.a(nus.c.obj)
 .rodata.z_arm_fatal_error.str1.1
                0x00017f4b       0x9b zephyr/arch/arm/core/libarch__arm__core.a(fatal.c.obj)
 .rodata.BusFault.isra.3.str1.1
                0x00017fe6       0x88 zephyr/arch/arm/core/cortex_m/libarch__arm__core__cortex_m.a(fault.c.obj)
 .rodata.MpuFault.isra.2.str1.1
                0x0001806e       0xa9 zephyr/arch/arm/core/cortex_m/libarch__arm__core__cortex_m.a(fault.c.obj)
 .rodata.UsageFault.isra.4.str1.1
                0x00018117       0xcd zephyr/arch/arm/core/cortex_m/libarch__arm__core__cortex_m.a(fault.c.obj)
 .rodata._Fault.str1.1
                0x000181e4       0xce zephyr/arch/arm/core/cortex_m/libarch__arm__core__cortex_m.a(fault.c.obj)
 .rodata.str1.1
                0x000182b2        0x1 zephyr/arch/arm/core/cortex_m/mpu/libarch__arm__core__cortex_m__mpu.a(arm_mpu.c.obj)
 .rodata.bt_hci_ecc_init.str1.1
                0x000182b2        0x7 zephyr/subsys/bluetooth/host/libsubsys__bluetooth__host.a(hci_ecc.c.obj)
 .rodata.uuid128_base
                0x000182b9       0x11 zephyr/subsys/bluetooth/host/libsubsys__bluetooth__host.a(uuid.c.obj)
 .rodata.bt_enable.str1.1
                0x000182ca        0x6 zephyr/subsys/bluetooth/host/libsubsys__bluetooth__host.a(hci_core.c.obj)
 .rodata.le_adv_update.str1.1
                0x000182d0       0x14 zephyr/subsys/bluetooth/host/libsubsys__bluetooth__host.a(hci_core.c.obj)
 .rodata.gen_method_legacy
                0x000182d0       0x19 zephyr/subsys/bluetooth/host/libsubsys__bluetooth__host.a(smp.c.obj)
 .rodata.gen_method_sc
                0x000182e9       0x19 zephyr/subsys/bluetooth/host/libsubsys__bluetooth__host.a(smp.c.obj)
 .rodata.salt.11866
                0x00018302       0x10 zephyr/subsys/bluetooth/host/libsubsys__bluetooth__host.a(smp.c.obj)
 .rodata.sc_debug_public_key
                0x00018312       0x40 zephyr/subsys/bluetooth/host/libsubsys__bluetooth__host.a(smp.c.obj)
 .rodata.hci_driver_open.str1.1
                0x00018352       0x10 zephyr/subsys/bluetooth/controller/libsubsys__bluetooth__controller.a(hci_driver.c.obj)
 .rodata.str1.1
                0x00018362        0xb zephyr/subsys/bluetooth/controller/libsubsys__bluetooth__controller.a(hci_driver.c.obj)
                                  0xc (size before relaxing)
 .rodata.CSWTCH.192
                0x0001836d        0x8 zephyr/subsys/bluetooth/controller/libsubsys__bluetooth__controller.a(hci.c.obj)
 .rodata.hci_vendor_cmd_handle_common.str1.1
                0x00018375       0x13 zephyr/subsys/bluetooth/controller/libsubsys__bluetooth__controller.a(hci.c.obj)
 .rodata.k32src_wait.str1.1
                0x00018388        0xa zephyr/subsys/bluetooth/controller/libsubsys__bluetooth__controller.a(ctrl.c.obj)
 .rodata.ll_init.str1.1
                0x00018388       0x1e zephyr/subsys/bluetooth/controller/libsubsys__bluetooth__controller.a(ll.c.obj)
 .rodata.caller_id_lut
                0x00018388        0x4 zephyr/subsys/bluetooth/controller/libsubsys__bluetooth__controller.a(ticker.c.obj)
 .rodata.str1.1
                0x0001838c        0x7 zephyr/drivers/gpio/libdrivers__gpio.a(gpio_nrfx.c.obj)
 .rodata.str1.1
                0x0001838c        0x6 zephyr/drivers/pwm/libdrivers__pwm.a(pwm_nrfx.c.obj)
 .rodata.str1.1
                0x0001838c        0x7 zephyr/drivers/serial/libdrivers__serial.a(uart_nrfx_uarte.c.obj)
 .rodata.str1.1
                0x0001838c        0xa zephyr/drivers/entropy/libdrivers__entropy.a(entropy_nrf5.c.obj)
 .rodata.str1.1
                0x0001838c        0x7 zephyr/modules/nrf/lib/dk_buttons_and_leds/lib..__nrf__lib__dk_buttons_and_leds.a(dk_buttons_and_leds.c.obj)
 .rodata.k_sys_fatal_error_handler.str1.1
                0x0001838c        0xf zephyr/kernel/libkernel.a(fatal.c.obj)
 .rodata.str1.1
                0x0001839b       0x4a zephyr/kernel/libkernel.a(fatal.c.obj)
 .rodata.z_fatal_error.str1.1
                0x000183e5       0x4c zephyr/kernel/libkernel.a(fatal.c.obj)
 .rodata.z_fatal_print.str1.1
                0x00018431        0x8 zephyr/kernel/libkernel.a(fatal.c.obj)
                                  0xa (size before relaxing)
 .rodata.bg_thread_main.str1.1
                0x00018439       0x50 zephyr/kernel/libkernel.a(init.c.obj)
 .rodata.z_cstart.str1.1
                0x00018489        0xa zephyr/kernel/libkernel.a(init.c.obj)
 .rodata.str1.1
                0x00018493        0x1 zephyr/kernel/libkernel.a(mempool.c.obj)
 .rodata.k_sys_work_q_init.str1.1
                0x00018493        0x9 zephyr/kernel/libkernel.a(system_work_q.c.obj)
 .rodata.str1.1
                0x0001849c        0x1 zephyr/kernel/libkernel.a(system_work_q.c.obj)
 .rodata.k_work_q_start.str1.1
                0x0001849c        0xa zephyr/kernel/libkernel.a(work_q.c.obj)
 *(SORT_BY_ALIGNMENT(.gnu.linkonce.r.*))
                0x000184a8                . = ALIGN (0x4)
 *fill*         0x000184a6        0x2 
                0x000184a8                _ext_abis_start = .
 *(SORT_BY_ALIGNMENT(.ext_abis))
                0x00000000                _ext_abis_size = ABSOLUTE (((. - _ext_abis_start) / 0x4))
                0x000184a8                . = ALIGN (0x4)
                0x000184a8                _image_rodata_end = .
                0x000184c0                . = ALIGN (_region_min_align)
                0x00020000                . = ALIGN ((0x1 << LOG2CEIL ((_image_rodata_end - _image_rom_start))))
                0x00020000                _image_rom_end = .
                0x20000000                . = 0x20000000
                0x20000000                . = ALIGN (_region_min_align)
                0x20000000                _image_ram_start = .

.ramfunc        0x20000000        0x0 load address 0x000184a8
                0x20000000                . = ALIGN (_region_min_align)
                0x20000000                . = ALIGN ((0x1 << LOG2CEIL (_ramfunc_ram_size)))
                0x20000000                _ramfunc_ram_start = .
 *(SORT_BY_ALIGNMENT(.ramfunc))
 *(SORT_BY_ALIGNMENT(.ramfunc.*))
                0x20000000                . = ALIGN (_region_min_align)
                0x20000000                . = ALIGN ((0x1 << LOG2CEIL (_ramfunc_ram_size)))
                0x20000000                _ramfunc_ram_end = .
                0x00000000                _ramfunc_ram_size = (_ramfunc_ram_end - _ramfunc_ram_start)
                0x000184a8                _ramfunc_rom_start = LOADADDR (.ramfunc)

bss             0x20000000     0x22df
                0x20000000                . = ALIGN (0x4)
                0x20000000                __bss_start = .
                0x20000000                __kernel_ram_start = .
 *(SORT_BY_ALIGNMENT(.bss))
 *(SORT_BY_ALIGNMENT(.bss.*))
 .bss.event_mask_page_2
                0x20000000        0x8 zephyr/subsys/bluetooth/controller/libsubsys__bluetooth__controller.a(hci.c.obj)
 .bss.rpa_last_ms
                0x20000008        0x8 zephyr/subsys/bluetooth/controller/libsubsys__bluetooth__controller.a(ll_filter.c.obj)
                0x20000008                rpa_last_ms
 .bss.curr_tick
                0x20000010        0x8 zephyr/kernel/libkernel.a(timeout.c.obj)
 .bss._k_thread_obj_ble_write_thread_id
                0x20000018       0x6c app/libapp.a(main.c.obj)
                0x20000018                _k_thread_obj_ble_write_thread_id
 .bss._k_thread_obj_led_blink_thread_id
                0x20000084       0x6c app/libapp.a(main.c.obj)
                0x20000084                _k_thread_obj_led_blink_thread_id
 .bss._k_thread_obj_man_pwm_thread_id
                0x200000f0       0x6c app/libapp.a(main.c.obj)
                0x200000f0                _k_thread_obj_man_pwm_thread_id
 .bss.auth_conn
                0x2000015c        0x4 app/libapp.a(main.c.obj)
 .bss.current_conn
                0x20000160        0x4 app/libapp.a(main.c.obj)
 .bss.rx.12031  0x20000164        0x4 app/libapp.a(main.c.obj)
 .bss.uart      0x20000168        0x4 app/libapp.a(main.c.obj)
 .bss.led_port  0x2000016c        0x4 app/libapp.a(board_functions.c.obj)
                0x2000016c                led_port
 .bss.m_cb      0x20000170        0x8 zephyr/libzephyr.a(nrfx_pwm.c.obj)
 .bss.entropy_driver
                0x20000178        0x4 zephyr/libzephyr.a(rand32_entropy_device.c.obj)
 .bss.uart_console_dev
                0x2000017c        0x4 zephyr/libzephyr.a(uart_console.c.obj)
 .bss.last_count
                0x20000180        0x4 zephyr/libzephyr.a(nrf_rtc_timer.c.obj)
 .bss.nus_cb    0x20000184        0x8 zephyr/libzephyr.a(nus.c.obj)
 .bss.nuslc_ccc_cfg
                0x2000018c       0x40 zephyr/libzephyr.a(nus.c.obj)
 .bss.ecc_thread_data
                0x200001cc       0x6c zephyr/subsys/bluetooth/host/libsubsys__bluetooth__host.a(hci_ecc.c.obj)
 .bss.flags     0x20000238        0x4 zephyr/subsys/bluetooth/host/libsubsys__bluetooth__host.a(hci_ecc.c.obj)
 .bss.dh_key_cb
                0x2000023c        0x4 zephyr/subsys/bluetooth/host/libsubsys__bluetooth__host.a(hci_core.c.obj)
 .bss.pub_key_cb
                0x20000240        0x4 zephyr/subsys/bluetooth/host/libsubsys__bluetooth__host.a(hci_core.c.obj)
 .bss.ready_cb  0x20000244        0x4 zephyr/subsys/bluetooth/host/libsubsys__bluetooth__host.a(hci_core.c.obj)
 .bss.tx_thread_data
                0x20000248       0x6c zephyr/subsys/bluetooth/host/libsubsys__bluetooth__host.a(hci_core.c.obj)
 .bss.bt_auth   0x200002b4        0x4 zephyr/subsys/bluetooth/host/libsubsys__bluetooth__host.a(conn.c.obj)
                0x200002b4                bt_auth
 .bss.callback_list
                0x200002b8        0x4 zephyr/subsys/bluetooth/host/libsubsys__bluetooth__host.a(conn.c.obj)
 .bss.conn_tx   0x200002bc       0x54 zephyr/subsys/bluetooth/host/libsubsys__bluetooth__host.a(conn.c.obj)
 .bss.conns     0x20000310      0x130 zephyr/subsys/bluetooth/host/libsubsys__bluetooth__host.a(conn.c.obj)
 .bss.bt_l2cap_pool
                0x20000440      0x158 zephyr/subsys/bluetooth/host/libsubsys__bluetooth__host.a(l2cap.c.obj)
 .bss.bt_req_pool
                0x20000598      0x208 zephyr/subsys/bluetooth/host/libsubsys__bluetooth__host.a(att.c.obj)
 .bss.cancel    0x200007a0       0x18 zephyr/subsys/bluetooth/host/libsubsys__bluetooth__host.a(att.c.obj)
 .bss.init      0x200007b8        0x4 zephyr/subsys/bluetooth/host/libsubsys__bluetooth__host.a(gatt.c.obj)
 .bss.bt_smp_pool
                0x200007bc      0x370 zephyr/subsys/bluetooth/host/libsubsys__bluetooth__host.a(smp.c.obj)
 .bss.sc_public_key
                0x20000b2c        0x4 zephyr/subsys/bluetooth/host/libsubsys__bluetooth__host.a(smp.c.obj)
 .bss.mfl       0x20000b30       0x80 zephyr/subsys/bluetooth/controller/libsubsys__bluetooth__controller.a(mayfly.c.obj)
 .bss.mft       0x20000bb0       0xc0 zephyr/subsys/bluetooth/controller/libsubsys__bluetooth__controller.a(mayfly.c.obj)
 .bss._instance
                0x20000c70       0x2c zephyr/subsys/bluetooth/controller/libsubsys__bluetooth__controller.a(ticker.c.obj)
 .bss.prio_recv_thread_data
                0x20000c9c       0x6c zephyr/subsys/bluetooth/controller/libsubsys__bluetooth__controller.a(hci_driver.c.obj)
                0x20000c9c                prio_recv_thread_data
 .bss.recv_thread_data
                0x20000d08       0x6c zephyr/subsys/bluetooth/controller/libsubsys__bluetooth__controller.a(hci_driver.c.obj)
                0x20000d08                recv_thread_data
 .bss.conn_count
                0x20000d74        0x4 zephyr/subsys/bluetooth/controller/libsubsys__bluetooth__controller.a(hci.c.obj)
 .bss._radio    0x20000d78      0x18c zephyr/subsys/bluetooth/controller/libsubsys__bluetooth__controller.a(ctrl.c.obj)
 .bss.link_calc.13692
                0x20000f04        0x8 zephyr/subsys/bluetooth/controller/libsubsys__bluetooth__controller.a(ctrl.c.obj)
 .bss.link_calc.14255
                0x20000f0c        0x8 zephyr/subsys/bluetooth/controller/libsubsys__bluetooth__controller.a(ctrl.c.obj)
 .bss.link_inact.13694
                0x20000f14        0x8 zephyr/subsys/bluetooth/controller/libsubsys__bluetooth__controller.a(ctrl.c.obj)
 .bss.link_inact.14257
                0x20000f1c        0x8 zephyr/subsys/bluetooth/controller/libsubsys__bluetooth__controller.a(ctrl.c.obj)
 .bss.link_radio.13717
                0x20000f24        0x8 zephyr/subsys/bluetooth/controller/libsubsys__bluetooth__controller.a(ctrl.c.obj)
 .bss.link_radio.14278
                0x20000f2c        0x8 zephyr/subsys/bluetooth/controller/libsubsys__bluetooth__controller.a(ctrl.c.obj)
 .bss.link_xtal.13701
                0x20000f34        0x8 zephyr/subsys/bluetooth/controller/libsubsys__bluetooth__controller.a(ctrl.c.obj)
 .bss.link_xtal.14263
                0x20000f3c        0x8 zephyr/subsys/bluetooth/controller/libsubsys__bluetooth__controller.a(ctrl.c.obj)
 .bss.s_link.13381
                0x20000f44        0x8 zephyr/subsys/bluetooth/controller/libsubsys__bluetooth__controller.a(ctrl.c.obj)
 .bss.s_link.13395
                0x20000f4c        0x8 zephyr/subsys/bluetooth/controller/libsubsys__bluetooth__controller.a(ctrl.c.obj)
 .bss.s_link.13412
                0x20000f54        0x8 zephyr/subsys/bluetooth/controller/libsubsys__bluetooth__controller.a(ctrl.c.obj)
 .bss.s_link.13436
                0x20000f5c        0x8 zephyr/subsys/bluetooth/controller/libsubsys__bluetooth__controller.a(ctrl.c.obj)
 .bss.s_link.13442
                0x20000f64       0x10 zephyr/subsys/bluetooth/controller/libsubsys__bluetooth__controller.a(ctrl.c.obj)
 .bss.s_link.13523
                0x20000f74        0x8 zephyr/subsys/bluetooth/controller/libsubsys__bluetooth__controller.a(ctrl.c.obj)
 .bss.s_link.13550
                0x20000f7c        0x8 zephyr/subsys/bluetooth/controller/libsubsys__bluetooth__controller.a(ctrl.c.obj)
 .bss.s_link.13726
                0x20000f84        0x8 zephyr/subsys/bluetooth/controller/libsubsys__bluetooth__controller.a(ctrl.c.obj)
 .bss._radio    0x20000f8c      0x504 zephyr/subsys/bluetooth/controller/libsubsys__bluetooth__controller.a(ll.c.obj)
 .bss._ticker_nodes
                0x20001490      0x168 zephyr/subsys/bluetooth/controller/libsubsys__bluetooth__controller.a(ll.c.obj)
 .bss._ticker_user_ops
                0x200015f8      0x270 zephyr/subsys/bluetooth/controller/libsubsys__bluetooth__controller.a(ll.c.obj)
 .bss._ticker_users
                0x20001868       0x20 zephyr/subsys/bluetooth/controller/libsubsys__bluetooth__controller.a(ll.c.obj)
 .bss.sem_recv  0x20001888        0x4 zephyr/subsys/bluetooth/controller/libsubsys__bluetooth__controller.a(ll.c.obj)
 .bss.ll_adv    0x2000188c       0x10 zephyr/subsys/bluetooth/controller/libsubsys__bluetooth__controller.a(ll_adv.c.obj)
 .bss.rl        0x2000189c      0x140 zephyr/subsys/bluetooth/controller/libsubsys__bluetooth__controller.a(ll_filter.c.obj)
 .bss.rpa_timeout_ms
                0x200019dc        0x4 zephyr/subsys/bluetooth/controller/libsubsys__bluetooth__controller.a(ll_filter.c.obj)
                0x200019dc                rpa_timeout_ms
 .bss.rpa_work  0x200019e0       0x20 zephyr/subsys/bluetooth/controller/libsubsys__bluetooth__controller.a(ll_filter.c.obj)
                0x200019e0                rpa_work
 .bss._aar_scratch
                0x20001a00        0x3 zephyr/subsys/bluetooth/controller/libsubsys__bluetooth__controller.a(radio.c.obj)
 *fill*         0x20001a03        0x1 
 .bss._ccm_scratch
                0x20001a04      0x10b zephyr/subsys/bluetooth/controller/libsubsys__bluetooth__controller.a(radio.c.obj)
 *fill*         0x20001b0f        0x1 
 .bss._pkt_empty
                0x20001b10        0x3 zephyr/subsys/bluetooth/controller/libsubsys__bluetooth__controller.a(radio.c.obj)
 *fill*         0x20001b13        0x1 
 .bss._pkt_scratch
                0x20001b14      0x102 zephyr/subsys/bluetooth/controller/libsubsys__bluetooth__controller.a(radio.c.obj)
 *fill*         0x20001c16        0x2 
 .bss.isr_cb    0x20001c18        0x4 zephyr/subsys/bluetooth/controller/libsubsys__bluetooth__controller.a(radio.c.obj)
 .bss.isr_cb_param
                0x20001c1c        0x4 zephyr/subsys/bluetooth/controller/libsubsys__bluetooth__controller.a(radio.c.obj)
 .bss.radio_tmr_aa
                0x20001c20        0x4 zephyr/subsys/bluetooth/controller/libsubsys__bluetooth__controller.a(radio.c.obj)
 .bss.link.10960
                0x20001c24        0x8 zephyr/subsys/bluetooth/controller/libsubsys__bluetooth__controller.a(ticker.c.obj)
 .bss.link.10969
                0x20001c2c        0x8 zephyr/subsys/bluetooth/controller/libsubsys__bluetooth__controller.a(ticker.c.obj)
 .bss.link.10976
                0x20001c34        0x8 zephyr/subsys/bluetooth/controller/libsubsys__bluetooth__controller.a(ticker.c.obj)
 .bss.link.10980
                0x20001c3c        0x8 zephyr/subsys/bluetooth/controller/libsubsys__bluetooth__controller.a(ticker.c.obj)
 .bss.link.10986
                0x20001c44        0x8 zephyr/subsys/bluetooth/controller/libsubsys__bluetooth__controller.a(ticker.c.obj)
 .bss.gpio_nrfx_p0_data
                0x20001c4c       0x20 zephyr/drivers/gpio/libdrivers__gpio.a(gpio_nrfx.c.obj)
 .bss.entropy_nrf5_data
                0x20001c6c       0x54 zephyr/drivers/entropy/libdrivers__entropy.a(entropy_nrf5.c.obj)
 .bss.button_devs
                0x20001cc0       0x10 zephyr/modules/nrf/lib/dk_buttons_and_leds/lib..__nrf__lib__dk_buttons_and_leds.a(dk_buttons_and_leds.c.obj)
 .bss.button_handler_cb
                0x20001cd0        0x4 zephyr/modules/nrf/lib/dk_buttons_and_leds/lib..__nrf__lib__dk_buttons_and_leds.a(dk_buttons_and_leds.c.obj)
 .bss.buttons_scan
                0x20001cd4       0x20 zephyr/modules/nrf/lib/dk_buttons_and_leds/lib..__nrf__lib__dk_buttons_and_leds.a(dk_buttons_and_leds.c.obj)
 .bss.gpio_cb   0x20001cf4        0xc zephyr/modules/nrf/lib/dk_buttons_and_leds/lib..__nrf__lib__dk_buttons_and_leds.a(dk_buttons_and_leds.c.obj)
 .bss.last_button_scan.10003
                0x20001d00        0x4 zephyr/modules/nrf/lib/dk_buttons_and_leds/lib..__nrf__lib__dk_buttons_and_leds.a(dk_buttons_and_leds.c.obj)
 .bss.last_state.10077
                0x20001d04        0x4 zephyr/modules/nrf/lib/dk_buttons_and_leds/lib..__nrf__lib__dk_buttons_and_leds.a(dk_buttons_and_leds.c.obj)
 .bss.my_buttons
                0x20001d08        0x4 zephyr/modules/nrf/lib/dk_buttons_and_leds/lib..__nrf__lib__dk_buttons_and_leds.a(dk_buttons_and_leds.c.obj)
 .bss._idle_thread_s
                0x20001d0c       0x6c zephyr/kernel/libkernel.a(init.c.obj)
 .bss._main_thread_s
                0x20001d78       0x6c zephyr/kernel/libkernel.a(init.c.obj)
 .bss._mpool_buf__heap_mem_pool
                0x20001de4      0x100 zephyr/kernel/libkernel.a(mempool.c.obj)
                0x20001de4                _mpool_buf__heap_mem_pool
 .bss._mpool_lvls__heap_mem_pool
                0x20001ee4       0x18 zephyr/kernel/libkernel.a(mempool.c.obj)
                0x20001ee4                _mpool_lvls__heap_mem_pool
 .bss._kernel   0x20001efc       0x30 zephyr/kernel/libkernel.a(sched.c.obj)
                0x20001efc                _kernel
 .bss.pending_current
                0x20001f2c        0x4 zephyr/kernel/libkernel.a(sched.c.obj)
 .bss.slice_max_prio
                0x20001f30        0x4 zephyr/kernel/libkernel.a(sched.c.obj)
 .bss.slice_time
                0x20001f34        0x4 zephyr/kernel/libkernel.a(sched.c.obj)
 .bss.k_sys_work_q
                0x20001f38       0x7c zephyr/kernel/libkernel.a(system_work_q.c.obj)
                0x20001f38                k_sys_work_q
 .bss.announce_remaining
                0x20001fb4        0x4 zephyr/kernel/libkernel.a(timeout.c.obj)
 .bss.msg       0x20001fb8        0x8 app/libapp.a(main.c.obj)
                0x20001fb8                msg
 .bss.vcc       0x20001fc0        0x2 app/libapp.a(main.c.obj)
 .bss.last_static_handle
                0x20001fc2        0x2 zephyr/subsys/bluetooth/host/libsubsys__bluetooth__host.a(gatt.c.obj)
 .bss.key_pool  0x20001fc4       0xac zephyr/subsys/bluetooth/host/libsubsys__bluetooth__host.a(keys.c.obj)
 .bss._opcode   0x20002070        0x2 zephyr/subsys/bluetooth/controller/libsubsys__bluetooth__controller.a(hci.c.obj)
 .bss.to_encrypt
                0x20002072       0x30 app/libapp.a(main.c.obj)
                0x20002072                to_encrypt
 .bss.k32src_initialized
                0x200020a2        0x1 zephyr/libzephyr.a(nrf_power_clock.c.obj)
 .bss.m16src_grd
                0x200020a3        0x1 zephyr/libzephyr.a(nrf_power_clock.c.obj)
 .bss.m16src_ref
                0x200020a4        0x1 zephyr/libzephyr.a(nrf_power_clock.c.obj)
 .bss.static_regions_num
                0x200020a5        0x1 zephyr/arch/arm/core/cortex_m/mpu/libarch__arm__core__cortex_m__mpu.a(arm_mpu.c.obj)
 .bss.ecc       0x200020a6       0x60 zephyr/subsys/bluetooth/host/libsubsys__bluetooth__host.a(hci_ecc.c.obj)
 .bss.pub_key   0x20002106       0x40 zephyr/subsys/bluetooth/host/libsubsys__bluetooth__host.a(hci_core.c.obj)
 .bss.ident.11576
                0x20002146        0x1 zephyr/subsys/bluetooth/host/libsubsys__bluetooth__host.a(l2cap.c.obj)
 .bss.oobd_present
                0x20002147        0x1 zephyr/subsys/bluetooth/host/libsubsys__bluetooth__host.a(smp.c.obj)
 .bss.sc_supported
                0x20002148        0x1 zephyr/subsys/bluetooth/host/libsubsys__bluetooth__host.a(smp.c.obj)
 .bss.mfp       0x20002149        0x4 zephyr/subsys/bluetooth/controller/libsubsys__bluetooth__controller.a(mayfly.c.obj)
 .bss.pub_addr  0x2000214d        0x6 zephyr/subsys/bluetooth/controller/libsubsys__bluetooth__controller.a(ll_addr.c.obj)
 .bss.rnd_addr  0x20002153        0x6 zephyr/subsys/bluetooth/controller/libsubsys__bluetooth__controller.a(ll_addr.c.obj)
 .bss.done.13424
                0x20002159        0x1 zephyr/subsys/bluetooth/controller/libsubsys__bluetooth__controller.a(ctrl.c.obj)
 .bss.s_active.13372
                0x2000215a        0x1 zephyr/subsys/bluetooth/controller/libsubsys__bluetooth__controller.a(ctrl.c.obj)
 .bss.s_xtal_retained.13435
                0x2000215b        0x1 zephyr/subsys/bluetooth/controller/libsubsys__bluetooth__controller.a(ctrl.c.obj)
 .bss.local_rpas
                0x2000215c       0x30 zephyr/subsys/bluetooth/controller/libsubsys__bluetooth__controller.a(ll_filter.c.obj)
 .bss.peer_irk_count
                0x2000218c        0x1 zephyr/subsys/bluetooth/controller/libsubsys__bluetooth__controller.a(ll_filter.c.obj)
 .bss.peer_irk_rl_ids
                0x2000218d        0x8 zephyr/subsys/bluetooth/controller/libsubsys__bluetooth__controller.a(ll_filter.c.obj)
 .bss.peer_irks
                0x20002195       0x80 zephyr/subsys/bluetooth/controller/libsubsys__bluetooth__controller.a(ll_filter.c.obj)
 .bss.rl_enable
                0x20002215        0x1 zephyr/subsys/bluetooth/controller/libsubsys__bluetooth__controller.a(ll_filter.c.obj)
 .bss.rl_filter
                0x20002216       0x32 zephyr/subsys/bluetooth/controller/libsubsys__bluetooth__controller.a(ll_filter.c.obj)
 .bss.wl        0x20002248       0x40 zephyr/subsys/bluetooth/controller/libsubsys__bluetooth__controller.a(ll_filter.c.obj)
 .bss.wl_anon   0x20002288        0x1 zephyr/subsys/bluetooth/controller/libsubsys__bluetooth__controller.a(ll_filter.c.obj)
                0x20002288                wl_anon
 .bss.wl_filter
                0x20002289       0x32 zephyr/subsys/bluetooth/controller/libsubsys__bluetooth__controller.a(ll_filter.c.obj)
 .bss._refcount
                0x200022bb        0x1 zephyr/subsys/bluetooth/controller/libsubsys__bluetooth__controller.a(cntr.c.obj)
 .bss.sw_tifs_toggle
                0x200022bc        0x1 zephyr/subsys/bluetooth/controller/libsubsys__bluetooth__controller.a(radio.c.obj)
 .bss.gpio_initialized.10316
                0x200022bd        0x1 zephyr/drivers/gpio/libdrivers__gpio.a(gpio_nrfx.c.obj)
 .bss.uarte0_tx_buffer
                0x200022be       0x20 zephyr/drivers/serial/libdrivers__serial.a(uart_nrfx_uarte.c.obj)
 .bss.state     0x200022de        0x1 zephyr/modules/nrf/lib/dk_buttons_and_leds/lib..__nrf__lib__dk_buttons_and_leds.a(dk_buttons_and_leds.c.obj)
 .bss.lock      0x200022df        0x0 zephyr/kernel/libkernel.a(mempool.c.obj)
 .bss.lock      0x200022df        0x0 zephyr/kernel/libkernel.a(sem.c.obj)
 .bss.lock      0x200022df        0x0 zephyr/kernel/libkernel.a(thread.c.obj)
 .bss.lock      0x200022df        0x0 zephyr/kernel/libkernel.a(poll.c.obj)
 *(SORT_BY_ALIGNMENT(COMMON))
 *(SORT_BY_ALIGNMENT(.kernel_bss.*))
                0x200022e0                __bss_end = ALIGN (0x4)

noinit          0x200022e0     0x2bb1
 *(SORT_BY_ALIGNMENT(.noinit))
 *(SORT_BY_ALIGNMENT(.noinit.*))
 .noinit."../src/main.c".0
                0x200022e0      0x400 app/libapp.a(main.c.obj)
                0x200022e0                _k_thread_stack_led_blink_thread_id
 .noinit."../src/main.c".1
                0x200026e0      0x400 app/libapp.a(main.c.obj)
                0x200026e0                _k_thread_stack_ble_write_thread_id
 .noinit."../src/main.c".2
                0x20002ae0       0x80 app/libapp.a(main.c.obj)
                0x20002ae0                _k_thread_stack_man_pwm_thread_id
 .noinit."C:/Users/Olle/Documents/ncs/ncs/zephyr/subsys/bluetooth/host/hci_ecc.c".0
                0x20002b60      0x44c zephyr/subsys/bluetooth/host/libsubsys__bluetooth__host.a(hci_ecc.c.obj)
 *fill*         0x20002fac        0x4 
 .noinit."C:/Users/Olle/Documents/ncs/ncs/zephyr/subsys/bluetooth/host/hci_core.c".0
                0x20002fb0      0x280 zephyr/subsys/bluetooth/host/libsubsys__bluetooth__host.a(hci_core.c.obj)
 .noinit."C:/Users/Olle/Documents/ncs/ncs/zephyr/subsys/bluetooth/controller/hci/hci_driver.c".0
                0x20003230      0x1c0 zephyr/subsys/bluetooth/controller/libsubsys__bluetooth__controller.a(hci_driver.c.obj)
 .noinit."C:/Users/Olle/Documents/ncs/ncs/zephyr/subsys/bluetooth/controller/hci/hci_driver.c".1
                0x200033f0      0x400 zephyr/subsys/bluetooth/controller/libsubsys__bluetooth__controller.a(hci_driver.c.obj)
 .noinit."C:/Users/Olle/Documents/ncs/ncs/zephyr/kernel/init.c".1
                0x200037f0      0x400 zephyr/kernel/libkernel.a(init.c.obj)
                0x200037f0                _main_stack
 .noinit."C:/Users/Olle/Documents/ncs/ncs/zephyr/kernel/init.c".2
                0x20003bf0      0x100 zephyr/kernel/libkernel.a(init.c.obj)
                0x20003bf0                _idle_stack
 .noinit."C:/Users/Olle/Documents/ncs/ncs/zephyr/kernel/init.c".3
                0x20003cf0      0x800 zephyr/kernel/libkernel.a(init.c.obj)
                0x20003cf0                _interrupt_stack
 .noinit."C:/Users/Olle/Documents/ncs/ncs/zephyr/kernel/system_work_q.c".0
                0x200044f0      0x400 zephyr/kernel/libkernel.a(system_work_q.c.obj)
                0x200044f0                sys_work_q_stack
 .noinit."C:/Users/Olle/Documents/ncs/ncs/zephyr/subsys/bluetooth/host/hci_core.c".1
                0x200048f0       0x38 zephyr/subsys/bluetooth/host/libsubsys__bluetooth__host.a(hci_core.c.obj)
 .noinit."C:/Users/Olle/Documents/ncs/ncs/zephyr/subsys/bluetooth/host/hci_core.c".3
                0x20004928       0x54 zephyr/subsys/bluetooth/host/libsubsys__bluetooth__host.a(hci_core.c.obj)
 .noinit."C:/Users/Olle/Documents/ncs/ncs/zephyr/subsys/bluetooth/host/hci_core.c".5
                0x2000497c       0x1c zephyr/subsys/bluetooth/host/libsubsys__bluetooth__host.a(hci_core.c.obj)
 .noinit."C:/Users/Olle/Documents/ncs/ncs/zephyr/subsys/bluetooth/host/hci_core.c".7
                0x20004998       0x54 zephyr/subsys/bluetooth/host/libsubsys__bluetooth__host.a(hci_core.c.obj)
 .noinit."C:/Users/Olle/Documents/ncs/ncs/zephyr/subsys/bluetooth/host/conn.c".0
                0x200049ec       0x54 zephyr/subsys/bluetooth/host/libsubsys__bluetooth__host.a(conn.c.obj)
 .noinit."C:/Users/Olle/Documents/ncs/ncs/zephyr/subsys/bluetooth/host/conn.c".2
                0x20004a40       0x38 zephyr/subsys/bluetooth/host/libsubsys__bluetooth__host.a(conn.c.obj)
 .noinit."C:/Users/Olle/Documents/ncs/ncs/zephyr/subsys/bluetooth/host/hci_core.c".2
                0x20004a78       0x98 zephyr/subsys/bluetooth/host/libsubsys__bluetooth__host.a(hci_core.c.obj)
 .noinit."C:/Users/Olle/Documents/ncs/ncs/zephyr/subsys/bluetooth/host/hci_core.c".4
                0x20004b10       0xe4 zephyr/subsys/bluetooth/host/libsubsys__bluetooth__host.a(hci_core.c.obj)
 .noinit."C:/Users/Olle/Documents/ncs/ncs/zephyr/subsys/bluetooth/host/hci_core.c".6
                0x20004bf4       0x4c zephyr/subsys/bluetooth/host/libsubsys__bluetooth__host.a(hci_core.c.obj)
 .noinit."C:/Users/Olle/Documents/ncs/ncs/zephyr/subsys/bluetooth/host/hci_core.c".8
                0x20004c40       0xe4 zephyr/subsys/bluetooth/host/libsubsys__bluetooth__host.a(hci_core.c.obj)
 .noinit."C:/Users/Olle/Documents/ncs/ncs/zephyr/subsys/bluetooth/host/conn.c".1
                0x20004d24       0xdb zephyr/subsys/bluetooth/host/libsubsys__bluetooth__host.a(conn.c.obj)
 .noinit."C:/Users/Olle/Documents/ncs/ncs/zephyr/subsys/bluetooth/host/conn.c".3
                0x20004dff       0x92 zephyr/subsys/bluetooth/host/libsubsys__bluetooth__host.a(conn.c.obj)
 *(SORT_BY_ALIGNMENT(.kernel_noinit.*))

datas           0x20004e98      0x4b4 load address 0x000184af
                0x20004e98                __data_ram_start = .
 *(SORT_BY_ALIGNMENT(.data))
 *(SORT_BY_ALIGNMENT(.data.*))
 .data.bt_dev   0x20004e98       0xd8 zephyr/subsys/bluetooth/host/libsubsys__bluetooth__host.a(hci_core.c.obj)
                0x20004e98                bt_dev
 .data.event_mask
                0x20004f70        0x8 zephyr/subsys/bluetooth/controller/libsubsys__bluetooth__controller.a(hci.c.obj)
 .data.le_event_mask
                0x20004f78        0x8 zephyr/subsys/bluetooth/controller/libsubsys__bluetooth__controller.a(hci.c.obj)
 .data.conn_auth_callbacks
                0x20004f80       0x20 app/libapp.a(main.c.obj)
                0x20004f80                conn_auth_callbacks
 .data.conn_callbacks
                0x20004fa0       0x1c app/libapp.a(main.c.obj)
                0x20004fa0                conn_callbacks
 .data.led_blink_state
                0x20004fbc        0x4 app/libapp.a(main.c.obj)
 .data.nus_cb   0x20004fc0        0x8 app/libapp.a(main.c.obj)
                0x20004fc0                nus_cb
 .data.pulse_width
                0x20004fc8        0x4 app/libapp.a(main.c.obj)
 .data._char_out
                0x20004fcc        0x4 zephyr/libzephyr.a(printk.c.obj)
                0x20004fcc                _char_out
 .data.g_rng_function
                0x20004fd0        0x4 zephyr/libzephyr.a(ecc.c.obj)
 .data.SystemCoreClock
                0x20004fd4        0x4 zephyr/libzephyr.a(system_nrf52810.c.obj)
                0x20004fd4                SystemCoreClock
 .data.__compound_literal.10
                0x20004fd8        0x8 zephyr/libzephyr.a(nus.c.obj)
 .data.__compound_literal.4
                0x20004fe0        0x8 zephyr/libzephyr.a(nus.c.obj)
 .data.__compound_literal.7
                0x20004fe8       0x18 zephyr/libzephyr.a(nus.c.obj)
 .data._stdout_hook
                0x20005000        0x4 zephyr/lib/libc/minimal/liblib__libc__minimal.a(stdout_console.c.obj)
 .data.events.12641
                0x20005004       0x78 zephyr/subsys/bluetooth/host/libsubsys__bluetooth__host.a(hci_core.c.obj)
 .data.conn_change
                0x2000507c       0x10 zephyr/subsys/bluetooth/host/libsubsys__bluetooth__host.a(conn.c.obj)
 .data.ops.11785
                0x2000508c       0x1c zephyr/subsys/bluetooth/host/libsubsys__bluetooth__host.a(l2cap.c.obj)
 .data.ops.12683
                0x200050a8       0x1c zephyr/subsys/bluetooth/host/libsubsys__bluetooth__host.a(att.c.obj)
 .data.__compound_literal.12
                0x200050c4        0x8 zephyr/subsys/bluetooth/host/libsubsys__bluetooth__host.a(gatt.c.obj)
 .data.__compound_literal.4
                0x200050cc        0x8 zephyr/subsys/bluetooth/host/libsubsys__bluetooth__host.a(gatt.c.obj)
 .data.__compound_literal.8
                0x200050d4        0x8 zephyr/subsys/bluetooth/host/libsubsys__bluetooth__host.a(gatt.c.obj)
 .data.ops.12499
                0x200050dc       0x1c zephyr/subsys/bluetooth/host/libsubsys__bluetooth__host.a(smp.c.obj)
 .data.pub_key_cb.12515
                0x200050f8        0x8 zephyr/subsys/bluetooth/host/libsubsys__bluetooth__host.a(smp.c.obj)
 .data.s_mfy_adv_stop.13727
                0x20005100       0x10 zephyr/subsys/bluetooth/controller/libsubsys__bluetooth__controller.a(ctrl.c.obj)
 .data.s_mfy_radio_active.13382
                0x20005110       0x10 zephyr/subsys/bluetooth/controller/libsubsys__bluetooth__controller.a(ctrl.c.obj)
 .data.s_mfy_radio_inactive.13396
                0x20005120       0x10 zephyr/subsys/bluetooth/controller/libsubsys__bluetooth__controller.a(ctrl.c.obj)
 .data.s_mfy_radio_inactive.13695
                0x20005130       0x10 zephyr/subsys/bluetooth/controller/libsubsys__bluetooth__controller.a(ctrl.c.obj)
 .data.s_mfy_radio_inactive.14258
                0x20005140       0x10 zephyr/subsys/bluetooth/controller/libsubsys__bluetooth__controller.a(ctrl.c.obj)
 .data.s_mfy_radio_stop.13524
                0x20005150       0x10 zephyr/subsys/bluetooth/controller/libsubsys__bluetooth__controller.a(ctrl.c.obj)
 .data.s_mfy_radio_stop.13718
                0x20005160       0x10 zephyr/subsys/bluetooth/controller/libsubsys__bluetooth__controller.a(ctrl.c.obj)
 .data.s_mfy_radio_stop.14279
                0x20005170       0x10 zephyr/subsys/bluetooth/controller/libsubsys__bluetooth__controller.a(ctrl.c.obj)
 .data.s_mfy_xtal_calc.13693
                0x20005180       0x10 zephyr/subsys/bluetooth/controller/libsubsys__bluetooth__controller.a(ctrl.c.obj)
 .data.s_mfy_xtal_calc.14256
                0x20005190       0x10 zephyr/subsys/bluetooth/controller/libsubsys__bluetooth__controller.a(ctrl.c.obj)
 .data.s_mfy_xtal_start.13413
                0x200051a0       0x10 zephyr/subsys/bluetooth/controller/libsubsys__bluetooth__controller.a(ctrl.c.obj)
 .data.s_mfy_xtal_start.13437
                0x200051b0       0x10 zephyr/subsys/bluetooth/controller/libsubsys__bluetooth__controller.a(ctrl.c.obj)
 .data.s_mfy_xtal_stop.13443
                0x200051c0       0x20 zephyr/subsys/bluetooth/controller/libsubsys__bluetooth__controller.a(ctrl.c.obj)
 .data.s_mfy_xtal_stop.13702
                0x200051e0       0x10 zephyr/subsys/bluetooth/controller/libsubsys__bluetooth__controller.a(ctrl.c.obj)
 .data.s_mfy_xtal_stop.14264
                0x200051f0       0x10 zephyr/subsys/bluetooth/controller/libsubsys__bluetooth__controller.a(ctrl.c.obj)
 .data.s_mfy_xtal_stop_calc.13551
                0x20005200       0x10 zephyr/subsys/bluetooth/controller/libsubsys__bluetooth__controller.a(ctrl.c.obj)
 .data.m.10961  0x20005210       0x10 zephyr/subsys/bluetooth/controller/libsubsys__bluetooth__controller.a(ticker.c.obj)
 .data.m.10970  0x20005220       0x10 zephyr/subsys/bluetooth/controller/libsubsys__bluetooth__controller.a(ticker.c.obj)
 .data.m.10977  0x20005230       0x10 zephyr/subsys/bluetooth/controller/libsubsys__bluetooth__controller.a(ticker.c.obj)
 .data.m.10981  0x20005240       0x10 zephyr/subsys/bluetooth/controller/libsubsys__bluetooth__controller.a(ticker.c.obj)
 .data.m.10987  0x20005250       0x10 zephyr/subsys/bluetooth/controller/libsubsys__bluetooth__controller.a(ticker.c.obj)
 .data.pwm_nrfx_0_data
                0x20005260       0x10 zephyr/drivers/pwm/libdrivers__pwm.a(pwm_nrfx.c.obj)
 .data.uarte0_int_driven
                0x20005270       0x10 zephyr/drivers/serial/libdrivers__serial.a(uart_nrfx_uarte.c.obj)
 .data.uarte_0_data
                0x20005280       0x10 zephyr/drivers/serial/libdrivers__serial.a(uart_nrfx_uarte.c.obj)
 .data.timeout_list
                0x20005290        0x8 zephyr/kernel/libkernel.a(timeout.c.obj)
 .data.pwm_seq  0x20005298        0x8 app/libapp.a(main.c.obj)
                0x20005298                pwm_seq
 .data.__compound_literal.0
                0x200052a0        0x4 zephyr/libzephyr.a(nus.c.obj)
 .data.__compound_literal.2
                0x200052a4        0x4 zephyr/libzephyr.a(nus.c.obj)
 .data.__compound_literal.6
                0x200052a8        0x4 zephyr/libzephyr.a(nus.c.obj)
 .data.__compound_literal.8
                0x200052ac        0x4 zephyr/libzephyr.a(nus.c.obj)
 .data.__compound_literal.0
                0x200052b0        0x4 zephyr/subsys/bluetooth/host/libsubsys__bluetooth__host.a(gatt.c.obj)
 .data.__compound_literal.1
                0x200052b4        0x4 zephyr/subsys/bluetooth/host/libsubsys__bluetooth__host.a(gatt.c.obj)
 .data.__compound_literal.10
                0x200052b8        0x4 zephyr/subsys/bluetooth/host/libsubsys__bluetooth__host.a(gatt.c.obj)
 .data.__compound_literal.11
                0x200052bc        0x4 zephyr/subsys/bluetooth/host/libsubsys__bluetooth__host.a(gatt.c.obj)
 .data.__compound_literal.13
                0x200052c0        0x4 zephyr/subsys/bluetooth/host/libsubsys__bluetooth__host.a(gatt.c.obj)
 .data.__compound_literal.14
                0x200052c4        0x4 zephyr/subsys/bluetooth/host/libsubsys__bluetooth__host.a(gatt.c.obj)
 .data.__compound_literal.15
                0x200052c8        0x4 zephyr/subsys/bluetooth/host/libsubsys__bluetooth__host.a(gatt.c.obj)
 .data.__compound_literal.2
                0x200052cc        0x4 zephyr/subsys/bluetooth/host/libsubsys__bluetooth__host.a(gatt.c.obj)
 .data.__compound_literal.3
                0x200052d0        0x4 zephyr/subsys/bluetooth/host/libsubsys__bluetooth__host.a(gatt.c.obj)
 .data.__compound_literal.5
                0x200052d4        0x4 zephyr/subsys/bluetooth/host/libsubsys__bluetooth__host.a(gatt.c.obj)
 .data.__compound_literal.6
                0x200052d8        0x4 zephyr/subsys/bluetooth/host/libsubsys__bluetooth__host.a(gatt.c.obj)
 .data.__compound_literal.7
                0x200052dc        0x4 zephyr/subsys/bluetooth/host/libsubsys__bluetooth__host.a(gatt.c.obj)
 .data.__compound_literal.9
                0x200052e0        0x4 zephyr/subsys/bluetooth/host/libsubsys__bluetooth__host.a(gatt.c.obj)
 .data.__compound_literal.1
                0x200052e4        0x1 app/libapp.a(main.c.obj)
 .data.__compound_literal.3
                0x200052e5       0x10 app/libapp.a(main.c.obj)
 .data.__compound_literal.1
                0x200052f5       0x11 zephyr/libzephyr.a(nus.c.obj)
 .data.__compound_literal.11
                0x20005306       0x11 zephyr/libzephyr.a(nus.c.obj)
 .data.__compound_literal.3
                0x20005317       0x11 zephyr/libzephyr.a(nus.c.obj)
 .data.__compound_literal.5
                0x20005328       0x11 zephyr/libzephyr.a(nus.c.obj)
 .data.__compound_literal.9
                0x20005339       0x11 zephyr/libzephyr.a(nus.c.obj)
 .data.bondable
                0x2000534a        0x1 zephyr/subsys/bluetooth/host/libsubsys__bluetooth__host.a(smp.c.obj)
 .data.initial_run.10004
                0x2000534b        0x1 zephyr/modules/nrf/lib/dk_buttons_and_leds/lib..__nrf__lib__dk_buttons_and_leds.a(dk_buttons_and_leds.c.obj)
 *(SORT_BY_ALIGNMENT(.kernel.*))
                0x000184af                __data_rom_start = LOADADDR (datas)

initlevel       0x2000534c       0x9c load address 0x00018963
                0x2000534c                __device_init_start = .
                0x2000534c                __device_PRE_KERNEL_1_start = .
 *(SORT_BY_NAME(SORT_BY_ALIGNMENT(.init_PRE_KERNEL_1[0-9])))
 .init_PRE_KERNEL_10
                0x2000534c        0xc zephyr/libzephyr.a(soc.c.obj)
 *(SORT_BY_NAME(SORT_BY_ALIGNMENT(.init_PRE_KERNEL_1[1-9][0-9])))
 .init_PRE_KERNEL_130
                0x20005358        0xc zephyr/kernel/libkernel.a(mempool.c.obj)
 .init_PRE_KERNEL_140
                0x20005364        0xc zephyr/arch/arm/core/cortex_m/mpu/libarch__arm__core__cortex_m__mpu.a(arm_mpu.c.obj)
 .init_PRE_KERNEL_150
                0x20005370       0x18 zephyr/libzephyr.a(nrf_power_clock.c.obj)
 .init_PRE_KERNEL_150
                0x20005388        0xc zephyr/drivers/serial/libdrivers__serial.a(uart_nrfx_uarte.c.obj)
 .init_PRE_KERNEL_150
                0x20005394        0xc zephyr/drivers/entropy/libdrivers__entropy.a(entropy_nrf5.c.obj)
 .init_PRE_KERNEL_160
                0x200053a0        0xc zephyr/libzephyr.a(uart_console.c.obj)
                0x200053ac                __device_PRE_KERNEL_2_start = .
 *(SORT_BY_NAME(SORT_BY_ALIGNMENT(.init_PRE_KERNEL_2[0-9])))
 .init_PRE_KERNEL_20
                0x200053ac        0xc zephyr/libzephyr.a(sys_clock_init.c.obj)
 *(SORT_BY_NAME(SORT_BY_ALIGNMENT(.init_PRE_KERNEL_2[1-9][0-9])))
                0x200053b8                __device_POST_KERNEL_start = .
 *(SORT_BY_NAME(SORT_BY_ALIGNMENT(.init_POST_KERNEL[0-9])))
 *(SORT_BY_NAME(SORT_BY_ALIGNMENT(.init_POST_KERNEL[1-9][0-9])))
 .init_POST_KERNEL40
                0x200053b8        0xc zephyr/drivers/gpio/libdrivers__gpio.a(gpio_nrfx.c.obj)
 .init_POST_KERNEL40
                0x200053c4        0xc zephyr/kernel/libkernel.a(system_work_q.c.obj)
 .init_POST_KERNEL50
                0x200053d0        0xc zephyr/subsys/bluetooth/controller/libsubsys__bluetooth__controller.a(hci_driver.c.obj)
 .init_POST_KERNEL50
                0x200053dc        0xc zephyr/drivers/pwm/libdrivers__pwm.a(pwm_nrfx.c.obj)
                0x200053e8                __device_APPLICATION_start = .
 *(SORT_BY_NAME(SORT_BY_ALIGNMENT(.init_APPLICATION[0-9])))
 *(SORT_BY_NAME(SORT_BY_ALIGNMENT(.init_APPLICATION[1-9][0-9])))
                0x200053e8                __device_init_end = .

initlevel_error
                0x2000534c        0x0
 *(SORT_BY_NAME(SORT_BY_ALIGNMENT(.init_[_A-Z0-9]*)))
                0x00000001                ASSERT ((SIZEOF (initlevel_error) == 0x0), Undefined initialization levels used.)

initshell       0x200053e8        0x0 load address 0x000189ff
                0x200053e8                __shell_module_start = .
 *(SORT_BY_ALIGNMENT(.shell_module_*))
                0x200053e8                __shell_module_end = .
                0x200053e8                __shell_cmd_start = .
 *(SORT_BY_ALIGNMENT(.shell_cmd_*))
                0x200053e8                __shell_cmd_end = .

log_dynamic_sections
                0x200053e8        0x0 load address 0x000189ff
                0x200053e8                __log_dynamic_start = .
 *(SORT_BY_NAME(SORT_BY_ALIGNMENT(.log_dynamic_*)))
                0x200053e8                __log_dynamic_end = .

_static_thread_area
                0x200053e8       0x90 load address 0x000189ff
                0x200053e8                __static_thread_data_list_start = .
 *(SORT_BY_NAME(SORT_BY_ALIGNMENT(.__static_thread_data.static.*)))
 .__static_thread_data.static._k_thread_data_ble_write_thread_id
                0x200053e8       0x30 app/libapp.a(main.c.obj)
                0x200053e8                _k_thread_data_ble_write_thread_id
 .__static_thread_data.static._k_thread_data_led_blink_thread_id
                0x20005418       0x30 app/libapp.a(main.c.obj)
                0x20005418                _k_thread_data_led_blink_thread_id
 .__static_thread_data.static._k_thread_data_man_pwm_thread_id
                0x20005448       0x30 app/libapp.a(main.c.obj)
                0x20005448                _k_thread_data_man_pwm_thread_id
                0x20005478                __static_thread_data_list_end = .

_k_timer_area   0x20005478        0x0 load address 0x00018a8f
                0x20005478                _k_timer_list_start = .
 *(SORT_BY_ALIGNMENT(._k_timer.static.*))
                0x20005478                _k_timer_list_end = .

_k_mem_slab_area
                0x20005478        0x0 load address 0x00018a8f
                0x20005478                _k_mem_slab_list_start = .
 *(SORT_BY_ALIGNMENT(._k_mem_slab.static.*))
                0x20005478                _k_mem_slab_list_end = .

_k_mem_pool_area
                0x20005478       0x1c load address 0x00018a8f
                0x20005478                _k_mem_pool_list_start = .
 *(SORT_BY_ALIGNMENT(._k_mem_pool.static.*))
 ._k_mem_pool.static._heap_mem_pool
                0x20005478       0x1c zephyr/kernel/libkernel.a(mempool.c.obj)
                0x20005478                _heap_mem_pool
                0x20005494                _k_mem_pool_list_end = .

_k_sem_area     0x20005494       0x60 load address 0x00018aab
                0x20005494                _k_sem_list_start = .
 *(SORT_BY_ALIGNMENT(._k_sem.static.*))
 ._k_sem.static.ble_init_ok
                0x20005494       0x18 app/libapp.a(main.c.obj)
 ._k_sem.static.cmd_sem
                0x200054ac       0x18 zephyr/subsys/bluetooth/host/libsubsys__bluetooth__host.a(hci_ecc.c.obj)
 ._k_sem.static.sc_local_pkey_ready
                0x200054c4       0x18 zephyr/subsys/bluetooth/host/libsubsys__bluetooth__host.a(smp.c.obj)
 ._k_sem.static.sem_prio_recv
                0x200054dc       0x18 zephyr/subsys/bluetooth/controller/libsubsys__bluetooth__controller.a(hci_driver.c.obj)
                0x200054f4                _k_sem_list_end = .

_k_mutex_area   0x200054f4       0x14 load address 0x00018b0b
                0x200054f4                _k_mutex_list_start = .
 *(SORT_BY_ALIGNMENT(._k_mutex.static.*))
 ._k_mutex.static.fdtable_lock
                0x200054f4       0x14 zephyr/libzephyr.a(fdtable.c.obj)
                0x20005508                _k_mutex_list_end = .

_k_queue_area   0x20005508       0x50 load address 0x00018b1f
                0x20005508                _k_queue_list_start = .
 *(SORT_BY_ALIGNMENT(._k_queue.static.*))
 *(SORT_BY_ALIGNMENT(._k_fifo.static.*))
 ._k_fifo.static.fifo_ble_tx_data
                0x20005508       0x10 app/libapp.a(main.c.obj)
 ._k_fifo.static.fifo_uart_rx_data
                0x20005518       0x10 app/libapp.a(main.c.obj)
 ._k_fifo.static.fifo_uart_tx_data
                0x20005528       0x10 app/libapp.a(main.c.obj)
 ._k_fifo.static.free_tx
                0x20005538       0x10 zephyr/subsys/bluetooth/host/libsubsys__bluetooth__host.a(conn.c.obj)
                0x20005538                free_tx
 ._k_fifo.static.recv_fifo
                0x20005548       0x10 zephyr/subsys/bluetooth/controller/libsubsys__bluetooth__controller.a(hci_driver.c.obj)
 *(SORT_BY_ALIGNMENT(._k_lifo.static.*))
                0x20005558                _k_queue_list_end = .

_k_stack_area   0x20005558        0x0 load address 0x00018b6f
                0x20005558                _k_stack_list_start = .
 *(SORT_BY_ALIGNMENT(._k_stack.static.*))
                0x20005558                _k_stack_list_end = .

_k_msgq_area    0x20005558        0x0 load address 0x00018b6f
                0x20005558                _k_msgq_list_start = .
 *(SORT_BY_ALIGNMENT(._k_msgq.static.*))
                0x20005558                _k_msgq_list_end = .

_k_mbox_area    0x20005558        0x0 load address 0x00018b6f
                0x20005558                _k_mbox_list_start = .
 *(SORT_BY_ALIGNMENT(._k_mbox.static.*))
                0x20005558                _k_mbox_list_end = .

_k_pipe_area    0x20005558        0x0 load address 0x00018b6f
                0x20005558                _k_pipe_list_start = .
 *(SORT_BY_ALIGNMENT(._k_pipe.static.*))
                0x20005558                _k_pipe_list_end = .

_net_buf_pool_area
                0x20005558       0xc0 load address 0x00018b6f
                0x20005558                _net_buf_pool_list = .
 *(SORT_BY_NAME(SORT_BY_ALIGNMENT(._net_buf_pool.static.*)))
 ._net_buf_pool.static.acl_tx_pool
                0x20005558       0x20 zephyr/subsys/bluetooth/host/libsubsys__bluetooth__host.a(conn.c.obj)
                0x20005558                acl_tx_pool
 ._net_buf_pool.static.discardable_pool
                0x20005578       0x20 zephyr/subsys/bluetooth/host/libsubsys__bluetooth__host.a(hci_core.c.obj)
                0x20005578                discardable_pool
 ._net_buf_pool.static.frag_pool
                0x20005598       0x20 zephyr/subsys/bluetooth/host/libsubsys__bluetooth__host.a(conn.c.obj)
                0x20005598                frag_pool
 ._net_buf_pool.static.hci_cmd_pool
                0x200055b8       0x20 zephyr/subsys/bluetooth/host/libsubsys__bluetooth__host.a(hci_core.c.obj)
                0x200055b8                hci_cmd_pool
 ._net_buf_pool.static.hci_rx_pool
                0x200055d8       0x20 zephyr/subsys/bluetooth/host/libsubsys__bluetooth__host.a(hci_core.c.obj)
                0x200055d8                hci_rx_pool
 ._net_buf_pool.static.num_complete_pool
                0x200055f8       0x20 zephyr/subsys/bluetooth/host/libsubsys__bluetooth__host.a(hci_core.c.obj)
                0x200055f8                num_complete_pool

net_if          0x20005618        0x0 load address 0x00018c2f
                0x20005618                __net_if_start = .
 *(SORT_BY_ALIGNMENT(.net_if.*))
 *(SORT_BY_NAME(SORT_BY_ALIGNMENT(.net_if.*)))
                0x20005618                __net_if_end = .

net_if_dev      0x20005618        0x0 load address 0x00018c2f
                0x20005618                __net_if_dev_start = .
 *(SORT_BY_ALIGNMENT(.net_if_dev.*))
 *(SORT_BY_NAME(SORT_BY_ALIGNMENT(.net_if_dev.*)))
                0x20005618                __net_if_dev_end = .

net_l2_data     0x20005618        0x0 load address 0x00018c2f
                0x20005618                __net_l2_data_start = .
 *(SORT_BY_ALIGNMENT(.net_l2.data))
 *(SORT_BY_NAME(SORT_BY_ALIGNMENT(.net_l2.data*)))
                0x20005618                __net_l2_data_end = .

priv_stacks_noinit
                0x20005618        0x0 load address 0x00018c2f
                0x20005618                z_priv_stacks_ram_start = .
 *(SORT_BY_ALIGNMENT(.priv_stacks.noinit))
                0x20005618                z_priv_stacks_ram_end = .
                0x20005618                __data_ram_end = .
                0x20005618                _image_ram_end = .
                0x20005618                _end = .
                0x20006000                __kernel_ram_end = 0x20006000
                0x00006000                __kernel_ram_size = (__kernel_ram_end - __kernel_ram_start)

.intList        0x20006000       0x88
 *(SORT_BY_ALIGNMENT(.irq_info))
 .irq_info      0x20006000        0x8 zephyr/libzephyr.a(isr_tables.c.obj)
                0x20006000                _iheader
 *(SORT_BY_ALIGNMENT(.intList))
 .intList       0x20006008       0x10 zephyr/libzephyr.a(nrf_power_clock.c.obj)
 .intList       0x20006018       0x10 zephyr/libzephyr.a(nrf_rtc_timer.c.obj)
 .intList       0x20006028       0x30 zephyr/subsys/bluetooth/controller/libsubsys__bluetooth__controller.a(ll.c.obj)
 .intList       0x20006058       0x10 zephyr/drivers/gpio/libdrivers__gpio.a(gpio_nrfx.c.obj)
 .intList       0x20006068       0x10 zephyr/drivers/serial/libdrivers__serial.a(uart_nrfx_uarte.c.obj)
 .intList       0x20006078       0x10 zephyr/drivers/entropy/libdrivers__entropy.a(entropy_nrf5.c.obj)

.stab
 *(SORT_BY_ALIGNMENT(.stab))

.stabstr
 *(SORT_BY_ALIGNMENT(.stabstr))

.stab.excl
 *(SORT_BY_ALIGNMENT(.stab.excl))

.stab.exclstr
 *(SORT_BY_ALIGNMENT(.stab.exclstr))

.stab.index
 *(SORT_BY_ALIGNMENT(.stab.index))

.stab.indexstr
 *(SORT_BY_ALIGNMENT(.stab.indexstr))

.gnu.build.attributes
 *(SORT_BY_ALIGNMENT(.gnu.build.attributes) SORT_BY_ALIGNMENT(.gnu.build.attributes.*))

.comment        0x00000000       0x7f
 *(SORT_BY_ALIGNMENT(.comment))
 .comment       0x00000000       0x7f app/libapp.a(main.c.obj)
                                 0x80 (size before relaxing)
 .comment       0x0000007f       0x80 app/libapp.a(board_functions.c.obj)
 .comment       0x0000007f       0x80 app/libapp.a(adc.c.obj)
 .comment       0x0000007f       0x80 zephyr/libzephyr.a(isr_tables.c.obj)
 .comment       0x0000007f       0x80 zephyr/libzephyr.a(fdtable.c.obj)
 .comment       0x0000007f       0x80 zephyr/libzephyr.a(mempool.c.obj)
 .comment       0x0000007f       0x80 zephyr/libzephyr.a(thread_entry.c.obj)
 .comment       0x0000007f       0x80 zephyr/libzephyr.a(work_q.c.obj)
 .comment       0x0000007f       0x80 zephyr/libzephyr.a(printk.c.obj)
 .comment       0x0000007f       0x80 zephyr/libzephyr.a(configs.c.obj)
 .comment       0x0000007f       0x80 zephyr/libzephyr.a(soc.c.obj)
 .comment       0x0000007f       0x80 zephyr/libzephyr.a(mpu_regions.c.obj)
 .comment       0x0000007f       0x80 zephyr/libzephyr.a(utils.c.obj)
 .comment       0x0000007f       0x80 zephyr/libzephyr.a(ecc_dh.c.obj)
 .comment       0x0000007f       0x80 zephyr/libzephyr.a(ecc.c.obj)
 .comment       0x0000007f       0x80 zephyr/libzephyr.a(aes_encrypt.c.obj)
 .comment       0x0000007f       0x80 zephyr/libzephyr.a(cmac_mode.c.obj)
 .comment       0x0000007f       0x80 zephyr/libzephyr.a(system_nrf52810.c.obj)
 .comment       0x0000007f       0x80 zephyr/libzephyr.a(nrfx_pwm.c.obj)
 .comment       0x0000007f       0x80 zephyr/libzephyr.a(rand32_entropy_device.c.obj)
 .comment       0x0000007f       0x80 zephyr/libzephyr.a(uart_console.c.obj)
 .comment       0x0000007f       0x80 zephyr/libzephyr.a(nrf_power_clock.c.obj)
 .comment       0x0000007f       0x80 zephyr/libzephyr.a(sys_clock_init.c.obj)
 .comment       0x0000007f       0x80 zephyr/libzephyr.a(nrf_rtc_timer.c.obj)
 .comment       0x0000007f       0x80 zephyr/libzephyr.a(nus.c.obj)
 .comment       0x0000007f       0x80 zephyr/arch/arm/core/libarch__arm__core.a(swap.c.obj)
 .comment       0x0000007f       0x80 zephyr/arch/arm/core/libarch__arm__core.a(irq_manage.c.obj)
 .comment       0x0000007f       0x80 zephyr/arch/arm/core/libarch__arm__core.a(thread.c.obj)
 .comment       0x0000007f       0x80 zephyr/arch/arm/core/libarch__arm__core.a(fatal.c.obj)
 .comment       0x0000007f       0x80 zephyr/arch/arm/core/libarch__arm__core.a(nmi.c.obj)
 .comment       0x0000007f       0x80 zephyr/arch/arm/core/libarch__arm__core.a(prep_c.c.obj)
 .comment       0x0000007f       0x80 zephyr/arch/arm/core/cortex_m/libarch__arm__core__cortex_m.a(fault.c.obj)
 .comment       0x0000007f       0x80 zephyr/arch/arm/core/cortex_m/libarch__arm__core__cortex_m.a(irq_init.c.obj)
 .comment       0x0000007f       0x80 zephyr/arch/arm/core/cortex_m/libarch__arm__core__cortex_m.a(thread_abort.c.obj)
 .comment       0x0000007f       0x80 zephyr/arch/arm/core/cortex_m/mpu/libarch__arm__core__cortex_m__mpu.a(arm_core_mpu.c.obj)
 .comment       0x0000007f       0x80 zephyr/arch/arm/core/cortex_m/mpu/libarch__arm__core__cortex_m__mpu.a(arm_mpu.c.obj)
 .comment       0x0000007f       0x80 zephyr/lib/libc/minimal/liblib__libc__minimal.a(string.c.obj)
 .comment       0x0000007f       0x80 zephyr/lib/libc/minimal/liblib__libc__minimal.a(stdout_console.c.obj)
 .comment       0x0000007f       0x80 zephyr/subsys/bluetooth/common/libsubsys__bluetooth__common.a(rpa.c.obj)
 .comment       0x0000007f       0x80 zephyr/subsys/bluetooth/host/libsubsys__bluetooth__host.a(hci_ecc.c.obj)
 .comment       0x0000007f       0x80 zephyr/subsys/bluetooth/host/libsubsys__bluetooth__host.a(uuid.c.obj)
 .comment       0x0000007f       0x80 zephyr/subsys/bluetooth/host/libsubsys__bluetooth__host.a(hci_core.c.obj)
 .comment       0x0000007f       0x80 zephyr/subsys/bluetooth/host/libsubsys__bluetooth__host.a(conn.c.obj)
 .comment       0x0000007f       0x80 zephyr/subsys/bluetooth/host/libsubsys__bluetooth__host.a(l2cap.c.obj)
 .comment       0x0000007f       0x80 zephyr/subsys/bluetooth/host/libsubsys__bluetooth__host.a(att.c.obj)
 .comment       0x0000007f       0x80 zephyr/subsys/bluetooth/host/libsubsys__bluetooth__host.a(gatt.c.obj)
 .comment       0x0000007f       0x80 zephyr/subsys/bluetooth/host/libsubsys__bluetooth__host.a(smp.c.obj)
 .comment       0x0000007f       0x80 zephyr/subsys/bluetooth/host/libsubsys__bluetooth__host.a(keys.c.obj)
 .comment       0x0000007f       0x80 zephyr/subsys/bluetooth/controller/libsubsys__bluetooth__controller.a(mem.c.obj)
 .comment       0x0000007f       0x80 zephyr/subsys/bluetooth/controller/libsubsys__bluetooth__controller.a(memq.c.obj)
 .comment       0x0000007f       0x80 zephyr/subsys/bluetooth/controller/libsubsys__bluetooth__controller.a(mayfly.c.obj)
 .comment       0x0000007f       0x80 zephyr/subsys/bluetooth/controller/libsubsys__bluetooth__controller.a(util.c.obj)
 .comment       0x0000007f       0x80 zephyr/subsys/bluetooth/controller/libsubsys__bluetooth__controller.a(ticker.c.obj)
 .comment       0x0000007f       0x80 zephyr/subsys/bluetooth/controller/libsubsys__bluetooth__controller.a(ll_addr.c.obj)
 .comment       0x0000007f       0x80 zephyr/subsys/bluetooth/controller/libsubsys__bluetooth__controller.a(ll_tx_pwr.c.obj)
 .comment       0x0000007f       0x80 zephyr/subsys/bluetooth/controller/libsubsys__bluetooth__controller.a(hci_driver.c.obj)
 .comment       0x0000007f       0x80 zephyr/subsys/bluetooth/controller/libsubsys__bluetooth__controller.a(hci.c.obj)
 .comment       0x0000007f       0x80 zephyr/subsys/bluetooth/controller/libsubsys__bluetooth__controller.a(crypto.c.obj)
 .comment       0x0000007f       0x80 zephyr/subsys/bluetooth/controller/libsubsys__bluetooth__controller.a(ctrl.c.obj)
 .comment       0x0000007f       0x80 zephyr/subsys/bluetooth/controller/libsubsys__bluetooth__controller.a(ll.c.obj)
 .comment       0x0000007f       0x80 zephyr/subsys/bluetooth/controller/libsubsys__bluetooth__controller.a(ll_adv.c.obj)
 .comment       0x0000007f       0x80 zephyr/subsys/bluetooth/controller/libsubsys__bluetooth__controller.a(ll_filter.c.obj)
 .comment       0x0000007f       0x80 zephyr/subsys/bluetooth/controller/libsubsys__bluetooth__controller.a(cntr.c.obj)
 .comment       0x0000007f       0x80 zephyr/subsys/bluetooth/controller/libsubsys__bluetooth__controller.a(ecb.c.obj)
 .comment       0x0000007f       0x80 zephyr/subsys/bluetooth/controller/libsubsys__bluetooth__controller.a(radio.c.obj)
 .comment       0x0000007f       0x80 zephyr/subsys/bluetooth/controller/libsubsys__bluetooth__controller.a(mayfly.c.obj)
 .comment       0x0000007f       0x80 zephyr/subsys/bluetooth/controller/libsubsys__bluetooth__controller.a(ticker.c.obj)
 .comment       0x0000007f       0x80 zephyr/subsys/net/libsubsys__net.a(buf.c.obj)
 .comment       0x0000007f       0x80 zephyr/drivers/gpio/libdrivers__gpio.a(gpio_nrfx.c.obj)
 .comment       0x0000007f       0x80 zephyr/drivers/pwm/libdrivers__pwm.a(pwm_nrfx.c.obj)
 .comment       0x0000007f       0x80 zephyr/drivers/serial/libdrivers__serial.a(uart_nrfx_uarte.c.obj)
 .comment       0x0000007f       0x80 zephyr/drivers/entropy/libdrivers__entropy.a(entropy_nrf5.c.obj)
 .comment       0x0000007f       0x80 zephyr/modules/nrf/lib/dk_buttons_and_leds/lib..__nrf__lib__dk_buttons_and_leds.a(dk_buttons_and_leds.c.obj)
 .comment       0x0000007f       0x80 zephyr/kernel/libkernel.a(device.c.obj)
 .comment       0x0000007f       0x80 zephyr/kernel/libkernel.a(errno.c.obj)
 .comment       0x0000007f       0x80 zephyr/kernel/libkernel.a(fatal.c.obj)
 .comment       0x0000007f       0x80 zephyr/kernel/libkernel.a(idle.c.obj)
 .comment       0x0000007f       0x80 zephyr/kernel/libkernel.a(init.c.obj)
 .comment       0x0000007f       0x80 zephyr/kernel/libkernel.a(mempool.c.obj)
 .comment       0x0000007f       0x80 zephyr/kernel/libkernel.a(queue.c.obj)
 .comment       0x0000007f       0x80 zephyr/kernel/libkernel.a(sched.c.obj)
 .comment       0x0000007f       0x80 zephyr/kernel/libkernel.a(sem.c.obj)
 .comment       0x0000007f       0x80 zephyr/kernel/libkernel.a(system_work_q.c.obj)
 .comment       0x0000007f       0x80 zephyr/kernel/libkernel.a(thread.c.obj)
 .comment       0x0000007f       0x80 zephyr/kernel/libkernel.a(work_q.c.obj)
 .comment       0x0000007f       0x80 zephyr/kernel/libkernel.a(timeout.c.obj)
 .comment       0x0000007f       0x80 zephyr/kernel/libkernel.a(poll.c.obj)
 .comment       0x0000007f       0x80 zephyr/CMakeFiles/offsets.dir/arch/arm/core/offsets/offsets.c.obj

.debug
 *(SORT_BY_ALIGNMENT(.debug))

.line
 *(SORT_BY_ALIGNMENT(.line))

.debug_srcinfo
 *(SORT_BY_ALIGNMENT(.debug_srcinfo))

.debug_sfnames
 *(SORT_BY_ALIGNMENT(.debug_sfnames))

.debug_aranges  0x00000000     0x2b98
 *(SORT_BY_ALIGNMENT(.debug_aranges))
 .debug_aranges
                0x00000000       0x20 zephyr/arch/arm/core/libarch__arm__core.a(exc_exit.S.obj)
 .debug_aranges
                0x00000020       0x28 zephyr/arch/arm/core/libarch__arm__core.a(swap_helper.S.obj)
 .debug_aranges
                0x00000048       0x40 zephyr/arch/arm/core/libarch__arm__core.a(cpu_idle.S.obj)
 .debug_aranges
                0x00000088       0x20 zephyr/arch/arm/core/libarch__arm__core.a(fault_s.S.obj)
 .debug_aranges
                0x000000a8       0x20 zephyr/arch/arm/core/libarch__arm__core.a(nmi_on_reset.S.obj)
 .debug_aranges
                0x000000c8       0x20 zephyr/arch/arm/core/libarch__arm__core.a(isr_wrapper.S.obj)
 .debug_aranges
                0x000000e8       0x20 zephyr/arch/arm/core/cortex_m/libarch__arm__core__cortex_m.a(reset.S.obj)
 .debug_aranges
                0x00000108       0xf8 app/libapp.a(main.c.obj)
 .debug_aranges
                0x00000200       0x38 app/libapp.a(board_functions.c.obj)
 .debug_aranges
                0x00000238       0x20 app/libapp.a(adc.c.obj)
 .debug_aranges
                0x00000258       0x18 zephyr/libzephyr.a(isr_tables.c.obj)
 .debug_aranges
                0x00000270       0x50 zephyr/libzephyr.a(fdtable.c.obj)
 .debug_aranges
                0x000002c0       0x68 zephyr/libzephyr.a(mempool.c.obj)
 .debug_aranges
                0x00000328       0x20 zephyr/libzephyr.a(thread_entry.c.obj)
 .debug_aranges
                0x00000348       0x28 zephyr/libzephyr.a(work_q.c.obj)
 .debug_aranges
                0x00000370       0x80 zephyr/libzephyr.a(printk.c.obj)
 .debug_aranges
                0x000003f0       0x20 zephyr/libzephyr.a(configs.c.obj)
 .debug_aranges
                0x00000410       0x38 zephyr/libzephyr.a(soc.c.obj)
 .debug_aranges
                0x00000448       0x18 zephyr/libzephyr.a(mpu_regions.c.obj)
 .debug_aranges
                0x00000460       0x38 zephyr/libzephyr.a(utils.c.obj)
 .debug_aranges
                0x00000498       0x30 zephyr/libzephyr.a(ecc_dh.c.obj)
 .debug_aranges
                0x000004c8      0x168 zephyr/libzephyr.a(ecc.c.obj)
 .debug_aranges
                0x00000630       0x40 zephyr/libzephyr.a(aes_encrypt.c.obj)
 .debug_aranges
                0x00000670       0x48 zephyr/libzephyr.a(cmac_mode.c.obj)
 .debug_aranges
                0x000006b8       0x40 zephyr/libzephyr.a(system_nrf52810.c.obj)
 .debug_aranges
                0x000006f8       0x60 zephyr/libzephyr.a(nrfx_pwm.c.obj)
 .debug_aranges
                0x00000758       0x20 zephyr/libzephyr.a(rand32_entropy_device.c.obj)
 .debug_aranges
                0x00000778       0x30 zephyr/libzephyr.a(uart_console.c.obj)
 .debug_aranges
                0x000007a8       0x40 zephyr/libzephyr.a(nrf_power_clock.c.obj)
 .debug_aranges
                0x000007e8       0x40 zephyr/libzephyr.a(sys_clock_init.c.obj)
 .debug_aranges
                0x00000828       0x40 zephyr/libzephyr.a(nrf_rtc_timer.c.obj)
 .debug_aranges
                0x00000868       0x40 zephyr/libzephyr.a(nus.c.obj)
 .debug_aranges
                0x000008a8       0x20 zephyr/arch/arm/core/libarch__arm__core.a(swap.c.obj)
 .debug_aranges
                0x000008c8       0x50 zephyr/arch/arm/core/libarch__arm__core.a(irq_manage.c.obj)
 .debug_aranges
                0x00000918       0x20 zephyr/arch/arm/core/libarch__arm__core.a(thread.c.obj)
 .debug_aranges
                0x00000938       0x30 zephyr/arch/arm/core/libarch__arm__core.a(fatal.c.obj)
 .debug_aranges
                0x00000968       0x20 zephyr/arch/arm/core/libarch__arm__core.a(nmi.c.obj)
 .debug_aranges
                0x00000988       0x20 zephyr/arch/arm/core/libarch__arm__core.a(prep_c.c.obj)
 .debug_aranges
                0x000009a8       0x40 zephyr/arch/arm/core/cortex_m/libarch__arm__core__cortex_m.a(fault.c.obj)
 .debug_aranges
                0x000009e8       0x20 zephyr/arch/arm/core/cortex_m/libarch__arm__core__cortex_m.a(irq_init.c.obj)
 .debug_aranges
                0x00000a08       0x20 zephyr/arch/arm/core/cortex_m/libarch__arm__core__cortex_m.a(thread_abort.c.obj)
 .debug_aranges
                0x00000a28       0x28 zephyr/arch/arm/core/cortex_m/mpu/libarch__arm__core__cortex_m__mpu.a(arm_core_mpu.c.obj)
 .debug_aranges
                0x00000a50       0x48 zephyr/arch/arm/core/cortex_m/mpu/libarch__arm__core__cortex_m__mpu.a(arm_mpu.c.obj)
 .debug_aranges
                0x00000a98       0x90 zephyr/lib/libc/minimal/liblib__libc__minimal.a(string.c.obj)
 .debug_aranges
                0x00000b28       0x58 zephyr/lib/libc/minimal/liblib__libc__minimal.a(stdout_console.c.obj)
 .debug_aranges
                0x00000b80       0x30 zephyr/subsys/bluetooth/common/libsubsys__bluetooth__common.a(rpa.c.obj)
 .debug_aranges
                0x00000bb0       0x48 zephyr/subsys/bluetooth/host/libsubsys__bluetooth__host.a(hci_ecc.c.obj)
 .debug_aranges
                0x00000bf8       0x28 zephyr/subsys/bluetooth/host/libsubsys__bluetooth__host.a(uuid.c.obj)
 .debug_aranges
                0x00000c20      0x2d0 zephyr/subsys/bluetooth/host/libsubsys__bluetooth__host.a(hci_core.c.obj)
 .debug_aranges
                0x00000ef0      0x1a8 zephyr/subsys/bluetooth/host/libsubsys__bluetooth__host.a(conn.c.obj)
 .debug_aranges
                0x00001098       0xb0 zephyr/subsys/bluetooth/host/libsubsys__bluetooth__host.a(l2cap.c.obj)
 .debug_aranges
                0x00001148      0x190 zephyr/subsys/bluetooth/host/libsubsys__bluetooth__host.a(att.c.obj)
 .debug_aranges
                0x000012d8      0x130 zephyr/subsys/bluetooth/host/libsubsys__bluetooth__host.a(gatt.c.obj)
 .debug_aranges
                0x00001408      0x200 zephyr/subsys/bluetooth/host/libsubsys__bluetooth__host.a(smp.c.obj)
 .debug_aranges
                0x00001608       0x70 zephyr/subsys/bluetooth/host/libsubsys__bluetooth__host.a(keys.c.obj)
 .debug_aranges
                0x00001678       0x60 zephyr/subsys/bluetooth/controller/libsubsys__bluetooth__controller.a(mem.c.obj)
 .debug_aranges
                0x000016d8       0x40 zephyr/subsys/bluetooth/controller/libsubsys__bluetooth__controller.a(memq.c.obj)
 .debug_aranges
                0x00001718       0x38 zephyr/subsys/bluetooth/controller/libsubsys__bluetooth__controller.a(mayfly.c.obj)
 .debug_aranges
                0x00001750       0x20 zephyr/subsys/bluetooth/controller/libsubsys__bluetooth__controller.a(util.c.obj)
 .debug_aranges
                0x00001770       0x98 zephyr/subsys/bluetooth/controller/libsubsys__bluetooth__controller.a(ticker.c.obj)
 .debug_aranges
                0x00001808       0x30 zephyr/subsys/bluetooth/controller/libsubsys__bluetooth__controller.a(ll_addr.c.obj)
 .debug_aranges
                0x00001838       0x20 zephyr/subsys/bluetooth/controller/libsubsys__bluetooth__controller.a(ll_tx_pwr.c.obj)
 .debug_aranges
                0x00001858       0x40 zephyr/subsys/bluetooth/controller/libsubsys__bluetooth__controller.a(hci_driver.c.obj)
 .debug_aranges
                0x00001898       0xa0 zephyr/subsys/bluetooth/controller/libsubsys__bluetooth__controller.a(hci.c.obj)
 .debug_aranges
                0x00001938       0x30 zephyr/subsys/bluetooth/controller/libsubsys__bluetooth__controller.a(crypto.c.obj)
 .debug_aranges
                0x00001968      0x3b0 zephyr/subsys/bluetooth/controller/libsubsys__bluetooth__controller.a(ctrl.c.obj)
 .debug_aranges
                0x00001d18       0x50 zephyr/subsys/bluetooth/controller/libsubsys__bluetooth__controller.a(ll.c.obj)
 .debug_aranges
                0x00001d68       0x40 zephyr/subsys/bluetooth/controller/libsubsys__bluetooth__controller.a(ll_adv.c.obj)
 .debug_aranges
                0x00001da8      0x138 zephyr/subsys/bluetooth/controller/libsubsys__bluetooth__controller.a(ll_filter.c.obj)
 .debug_aranges
                0x00001ee0       0x40 zephyr/subsys/bluetooth/controller/libsubsys__bluetooth__controller.a(cntr.c.obj)
 .debug_aranges
                0x00001f20       0x50 zephyr/subsys/bluetooth/controller/libsubsys__bluetooth__controller.a(ecb.c.obj)
 .debug_aranges
                0x00001f70      0x250 zephyr/subsys/bluetooth/controller/libsubsys__bluetooth__controller.a(radio.c.obj)
 .debug_aranges
                0x000021c0       0x38 zephyr/subsys/bluetooth/controller/libsubsys__bluetooth__controller.a(mayfly.c.obj)
 .debug_aranges
                0x000021f8       0x30 zephyr/subsys/bluetooth/controller/libsubsys__bluetooth__controller.a(ticker.c.obj)
 .debug_aranges
                0x00002228      0x190 zephyr/subsys/net/libsubsys__net.a(buf.c.obj)
 .debug_aranges
                0x000023b8       0x68 zephyr/drivers/gpio/libdrivers__gpio.a(gpio_nrfx.c.obj)
 .debug_aranges
                0x00002420       0x30 zephyr/drivers/pwm/libdrivers__pwm.a(pwm_nrfx.c.obj)
 .debug_aranges
                0x00002450       0xc0 zephyr/drivers/serial/libdrivers__serial.a(uart_nrfx_uarte.c.obj)
 .debug_aranges
                0x00002510       0x48 zephyr/drivers/entropy/libdrivers__entropy.a(entropy_nrf5.c.obj)
 .debug_aranges
                0x00002558       0x78 zephyr/modules/nrf/lib/dk_buttons_and_leds/lib..__nrf__lib__dk_buttons_and_leds.a(dk_buttons_and_leds.c.obj)
 .debug_aranges
                0x000025d0       0x30 zephyr/kernel/libkernel.a(device.c.obj)
 .debug_aranges
                0x00002600       0x20 zephyr/kernel/libkernel.a(errno.c.obj)
 .debug_aranges
                0x00002620       0x38 zephyr/kernel/libkernel.a(fatal.c.obj)
 .debug_aranges
                0x00002658       0x28 zephyr/kernel/libkernel.a(idle.c.obj)
 .debug_aranges
                0x00002680       0x48 zephyr/kernel/libkernel.a(init.c.obj)
 .debug_aranges
                0x000026c8       0x68 zephyr/kernel/libkernel.a(mempool.c.obj)
 .debug_aranges
                0x00002730       0x78 zephyr/kernel/libkernel.a(queue.c.obj)
 .debug_aranges
                0x000027a8      0x188 zephyr/kernel/libkernel.a(sched.c.obj)
 .debug_aranges
                0x00002930       0x30 zephyr/kernel/libkernel.a(sem.c.obj)
 .debug_aranges
                0x00002960       0x20 zephyr/kernel/libkernel.a(system_work_q.c.obj)
 .debug_aranges
                0x00002980       0xc8 zephyr/kernel/libkernel.a(thread.c.obj)
 .debug_aranges
                0x00002a48       0x50 zephyr/kernel/libkernel.a(work_q.c.obj)
 .debug_aranges
                0x00002a98       0x80 zephyr/kernel/libkernel.a(timeout.c.obj)
 .debug_aranges
                0x00002b18       0x60 zephyr/kernel/libkernel.a(poll.c.obj)
 .debug_aranges
                0x00002b78       0x20 zephyr/CMakeFiles/offsets.dir/arch/arm/core/offsets/offsets.c.obj

.debug_pubnames
 *(SORT_BY_ALIGNMENT(.debug_pubnames))

.debug_info     0x00000000    0x95b1b
 *(SORT_BY_ALIGNMENT(.debug_info) SORT_BY_ALIGNMENT(.gnu.linkonce.wi.*))
 .debug_info    0x00000000     0x3c92 app/libapp.a(main.c.obj)
 .debug_info    0x00003c92     0x1152 app/libapp.a(board_functions.c.obj)
 .debug_info    0x00004de4      0xc7b app/libapp.a(adc.c.obj)
 .debug_info    0x00005a5f      0x1fa zephyr/libzephyr.a(isr_tables.c.obj)
 .debug_info    0x00005c59      0xc91 zephyr/libzephyr.a(fdtable.c.obj)
 .debug_info    0x000068ea     0x18c3 zephyr/libzephyr.a(mempool.c.obj)
 .debug_info    0x000081ad      0x809 zephyr/libzephyr.a(thread_entry.c.obj)
 .debug_info    0x000089b6      0xcb3 zephyr/libzephyr.a(work_q.c.obj)
 .debug_info    0x00009669     0x10b1 zephyr/libzephyr.a(printk.c.obj)
 .debug_info    0x0000a71a       0x37 zephyr/libzephyr.a(configs.c.obj)
 .debug_info    0x0000a751      0xfcb zephyr/libzephyr.a(soc.c.obj)
 .debug_info    0x0000b71c      0x186 zephyr/libzephyr.a(mpu_regions.c.obj)
 .debug_info    0x0000b8a2      0x21b zephyr/libzephyr.a(utils.c.obj)
 .debug_info    0x0000babd      0x724 zephyr/libzephyr.a(ecc_dh.c.obj)
 .debug_info    0x0000c1e1     0x2ed9 zephyr/libzephyr.a(ecc.c.obj)
 .debug_info    0x0000f0ba      0x54b zephyr/libzephyr.a(aes_encrypt.c.obj)
 .debug_info    0x0000f605      0x593 zephyr/libzephyr.a(cmac_mode.c.obj)
 .debug_info    0x0000fb98     0x1096 zephyr/libzephyr.a(system_nrf52810.c.obj)
 .debug_info    0x00010c2e     0x250a zephyr/libzephyr.a(nrfx_pwm.c.obj)
 .debug_info    0x00013138      0xa1e zephyr/libzephyr.a(rand32_entropy_device.c.obj)
 .debug_info    0x00013b56      0xc9f zephyr/libzephyr.a(uart_console.c.obj)
 .debug_info    0x000147f5     0x18de zephyr/libzephyr.a(nrf_power_clock.c.obj)
 .debug_info    0x000160d3      0x929 zephyr/libzephyr.a(sys_clock_init.c.obj)
 .debug_info    0x000169fc     0x1956 zephyr/libzephyr.a(nrf_rtc_timer.c.obj)
 .debug_info    0x00018352     0x1440 zephyr/libzephyr.a(nus.c.obj)
 .debug_info    0x00019792       0x26 zephyr/arch/arm/core/libarch__arm__core.a(exc_exit.S.obj)
 .debug_info    0x000197b8       0x22 zephyr/arch/arm/core/libarch__arm__core.a(swap_helper.S.obj)
 .debug_info    0x000197da       0x22 zephyr/arch/arm/core/libarch__arm__core.a(cpu_idle.S.obj)
 .debug_info    0x000197fc       0x26 zephyr/arch/arm/core/libarch__arm__core.a(fault_s.S.obj)
 .debug_info    0x00019822       0x26 zephyr/arch/arm/core/libarch__arm__core.a(nmi_on_reset.S.obj)
 .debug_info    0x00019848       0x26 zephyr/arch/arm/core/libarch__arm__core.a(isr_wrapper.S.obj)
 .debug_info    0x0001986e      0xa59 zephyr/arch/arm/core/libarch__arm__core.a(swap.c.obj)
 .debug_info    0x0001a2c7      0xe2f zephyr/arch/arm/core/libarch__arm__core.a(irq_manage.c.obj)
 .debug_info    0x0001b0f6      0xb41 zephyr/arch/arm/core/libarch__arm__core.a(thread.c.obj)
 .debug_info    0x0001bc37     0x104e zephyr/arch/arm/core/libarch__arm__core.a(fatal.c.obj)
 .debug_info    0x0001cc85      0x728 zephyr/arch/arm/core/libarch__arm__core.a(nmi.c.obj)
 .debug_info    0x0001d3ad      0xac7 zephyr/arch/arm/core/libarch__arm__core.a(prep_c.c.obj)
 .debug_info    0x0001de74       0x26 zephyr/arch/arm/core/cortex_m/libarch__arm__core__cortex_m.a(reset.S.obj)
 .debug_info    0x0001de9a     0x1646 zephyr/arch/arm/core/cortex_m/libarch__arm__core__cortex_m.a(fault.c.obj)
 .debug_info    0x0001f4e0      0xb21 zephyr/arch/arm/core/cortex_m/libarch__arm__core__cortex_m.a(irq_init.c.obj)
 .debug_info    0x00020001      0xb1f zephyr/arch/arm/core/cortex_m/libarch__arm__core__cortex_m.a(thread_abort.c.obj)
 .debug_info    0x00020b20      0xbde zephyr/arch/arm/core/cortex_m/mpu/libarch__arm__core__cortex_m__mpu.a(arm_core_mpu.c.obj)
 .debug_info    0x000216fe     0x13ad zephyr/arch/arm/core/cortex_m/mpu/libarch__arm__core__cortex_m__mpu.a(arm_mpu.c.obj)
 .debug_info    0x00022aab      0x5ef zephyr/lib/libc/minimal/liblib__libc__minimal.a(string.c.obj)
 .debug_info    0x0002309a      0x5ab zephyr/lib/libc/minimal/liblib__libc__minimal.a(stdout_console.c.obj)
 .debug_info    0x00023645      0xd76 zephyr/subsys/bluetooth/common/libsubsys__bluetooth__common.a(rpa.c.obj)
 .debug_info    0x000243bb     0x2534 zephyr/subsys/bluetooth/host/libsubsys__bluetooth__host.a(hci_ecc.c.obj)
 .debug_info    0x000268ef      0x3cb zephyr/subsys/bluetooth/host/libsubsys__bluetooth__host.a(uuid.c.obj)
 .debug_info    0x00026cba     0xa109 zephyr/subsys/bluetooth/host/libsubsys__bluetooth__host.a(hci_core.c.obj)
 .debug_info    0x00030dc3     0x54c5 zephyr/subsys/bluetooth/host/libsubsys__bluetooth__host.a(conn.c.obj)
 .debug_info    0x00036288     0x2fec zephyr/subsys/bluetooth/host/libsubsys__bluetooth__host.a(l2cap.c.obj)
 .debug_info    0x00039274     0x61a0 zephyr/subsys/bluetooth/host/libsubsys__bluetooth__host.a(att.c.obj)
 .debug_info    0x0003f414     0x3fe3 zephyr/subsys/bluetooth/host/libsubsys__bluetooth__host.a(gatt.c.obj)
 .debug_info    0x000433f7     0x7154 zephyr/subsys/bluetooth/host/libsubsys__bluetooth__host.a(smp.c.obj)
 .debug_info    0x0004a54b     0x1ad4 zephyr/subsys/bluetooth/host/libsubsys__bluetooth__host.a(keys.c.obj)
 .debug_info    0x0004c01f      0x4e5 zephyr/subsys/bluetooth/controller/libsubsys__bluetooth__controller.a(mem.c.obj)
 .debug_info    0x0004c504      0x251 zephyr/subsys/bluetooth/controller/libsubsys__bluetooth__controller.a(memq.c.obj)
 .debug_info    0x0004c755      0x5b7 zephyr/subsys/bluetooth/controller/libsubsys__bluetooth__controller.a(mayfly.c.obj)
 .debug_info    0x0004cd0c       0xdb zephyr/subsys/bluetooth/controller/libsubsys__bluetooth__controller.a(util.c.obj)
 .debug_info    0x0004cde7     0x2798 zephyr/subsys/bluetooth/controller/libsubsys__bluetooth__controller.a(ticker.c.obj)
 .debug_info    0x0004f57f      0xae6 zephyr/subsys/bluetooth/controller/libsubsys__bluetooth__controller.a(ll_addr.c.obj)
 .debug_info    0x00050065      0x951 zephyr/subsys/bluetooth/controller/libsubsys__bluetooth__controller.a(ll_tx_pwr.c.obj)
 .debug_info    0x000509b6     0x1b7c zephyr/subsys/bluetooth/controller/libsubsys__bluetooth__controller.a(hci_driver.c.obj)
 .debug_info    0x00052532     0x76a0 zephyr/subsys/bluetooth/controller/libsubsys__bluetooth__controller.a(hci.c.obj)
 .debug_info    0x00059bd2      0xc6e zephyr/subsys/bluetooth/controller/libsubsys__bluetooth__controller.a(crypto.c.obj)
 .debug_info    0x0005a840     0xd4ac zephyr/subsys/bluetooth/controller/libsubsys__bluetooth__controller.a(ctrl.c.obj)
 .debug_info    0x00067cec     0x15a5 zephyr/subsys/bluetooth/controller/libsubsys__bluetooth__controller.a(ll.c.obj)
 .debug_info    0x00069291     0x1595 zephyr/subsys/bluetooth/controller/libsubsys__bluetooth__controller.a(ll_adv.c.obj)
 .debug_info    0x0006a826     0x291b zephyr/subsys/bluetooth/controller/libsubsys__bluetooth__controller.a(ll_filter.c.obj)
 .debug_info    0x0006d141      0xf18 zephyr/subsys/bluetooth/controller/libsubsys__bluetooth__controller.a(cntr.c.obj)
 .debug_info    0x0006e059     0x150e zephyr/subsys/bluetooth/controller/libsubsys__bluetooth__controller.a(ecb.c.obj)
 .debug_info    0x0006f567     0x3661 zephyr/subsys/bluetooth/controller/libsubsys__bluetooth__controller.a(radio.c.obj)
 .debug_info    0x00072bc8      0xee1 zephyr/subsys/bluetooth/controller/libsubsys__bluetooth__controller.a(mayfly.c.obj)
 .debug_info    0x00073aa9      0xda9 zephyr/subsys/bluetooth/controller/libsubsys__bluetooth__controller.a(ticker.c.obj)
 .debug_info    0x00074852     0x2c43 zephyr/subsys/net/libsubsys__net.a(buf.c.obj)
 .debug_info    0x00077495     0x26a7 zephyr/drivers/gpio/libdrivers__gpio.a(gpio_nrfx.c.obj)
 .debug_info    0x00079b3c     0x1887 zephyr/drivers/pwm/libdrivers__pwm.a(pwm_nrfx.c.obj)
 .debug_info    0x0007b3c3     0x2dcf zephyr/drivers/serial/libdrivers__serial.a(uart_nrfx_uarte.c.obj)
 .debug_info    0x0007e192     0x185e zephyr/drivers/entropy/libdrivers__entropy.a(entropy_nrf5.c.obj)
 .debug_info    0x0007f9f0     0x2304 zephyr/modules/nrf/lib/dk_buttons_and_leds/lib..__nrf__lib__dk_buttons_and_leds.a(dk_buttons_and_leds.c.obj)
 .debug_info    0x00081cf4      0x8ff zephyr/kernel/libkernel.a(device.c.obj)
 .debug_info    0x000825f3      0x8d8 zephyr/kernel/libkernel.a(errno.c.obj)
 .debug_info    0x00082ecb     0x115a zephyr/kernel/libkernel.a(fatal.c.obj)
 .debug_info    0x00084025      0xa4d zephyr/kernel/libkernel.a(idle.c.obj)
 .debug_info    0x00084a72     0x1f62 zephyr/kernel/libkernel.a(init.c.obj)
 .debug_info    0x000869d4     0x1297 zephyr/kernel/libkernel.a(mempool.c.obj)
 .debug_info    0x00087c6b     0x1db2 zephyr/kernel/libkernel.a(queue.c.obj)
 .debug_info    0x00089a1d     0x3cff zephyr/kernel/libkernel.a(sched.c.obj)
 .debug_info    0x0008d71c      0xeac zephyr/kernel/libkernel.a(sem.c.obj)
 .debug_info    0x0008e5c8      0x930 zephyr/kernel/libkernel.a(system_work_q.c.obj)
 .debug_info    0x0008eef8     0x1b28 zephyr/kernel/libkernel.a(thread.c.obj)
 .debug_info    0x00090a20     0x1737 zephyr/kernel/libkernel.a(work_q.c.obj)
 .debug_info    0x00092157     0x17c6 zephyr/kernel/libkernel.a(timeout.c.obj)
 .debug_info    0x0009391d     0x19ae zephyr/kernel/libkernel.a(poll.c.obj)
 .debug_info    0x000952cb      0x850 zephyr/CMakeFiles/offsets.dir/arch/arm/core/offsets/offsets.c.obj

.debug_abbrev   0x00000000    0x13b1b
 *(SORT_BY_ALIGNMENT(.debug_abbrev))
 .debug_abbrev  0x00000000      0x6f6 app/libapp.a(main.c.obj)
 .debug_abbrev  0x000006f6      0x31b app/libapp.a(board_functions.c.obj)
 .debug_abbrev  0x00000a11      0x1cb app/libapp.a(adc.c.obj)
 .debug_abbrev  0x00000bdc       0xe5 zephyr/libzephyr.a(isr_tables.c.obj)
 .debug_abbrev  0x00000cc1      0x342 zephyr/libzephyr.a(fdtable.c.obj)
 .debug_abbrev  0x00001003      0x4e6 zephyr/libzephyr.a(mempool.c.obj)
 .debug_abbrev  0x000014e9      0x21e zephyr/libzephyr.a(thread_entry.c.obj)
 .debug_abbrev  0x00001707      0x34c zephyr/libzephyr.a(work_q.c.obj)
 .debug_abbrev  0x00001a53      0x46b zephyr/libzephyr.a(printk.c.obj)
 .debug_abbrev  0x00001ebe       0x2c zephyr/libzephyr.a(configs.c.obj)
 .debug_abbrev  0x00001eea      0x399 zephyr/libzephyr.a(soc.c.obj)
 .debug_abbrev  0x00002283       0xb8 zephyr/libzephyr.a(mpu_regions.c.obj)
 .debug_abbrev  0x0000233b      0x12a zephyr/libzephyr.a(utils.c.obj)
 .debug_abbrev  0x00002465      0x1a3 zephyr/libzephyr.a(ecc_dh.c.obj)
 .debug_abbrev  0x00002608      0x476 zephyr/libzephyr.a(ecc.c.obj)
 .debug_abbrev  0x00002a7e      0x1d7 zephyr/libzephyr.a(aes_encrypt.c.obj)
 .debug_abbrev  0x00002c55      0x1bf zephyr/libzephyr.a(cmac_mode.c.obj)
 .debug_abbrev  0x00002e14      0x22c zephyr/libzephyr.a(system_nrf52810.c.obj)
 .debug_abbrev  0x00003040      0x4f6 zephyr/libzephyr.a(nrfx_pwm.c.obj)
 .debug_abbrev  0x00003536      0x272 zephyr/libzephyr.a(rand32_entropy_device.c.obj)
 .debug_abbrev  0x000037a8      0x349 zephyr/libzephyr.a(uart_console.c.obj)
 .debug_abbrev  0x00003af1      0x42f zephyr/libzephyr.a(nrf_power_clock.c.obj)
 .debug_abbrev  0x00003f20      0x23b zephyr/libzephyr.a(sys_clock_init.c.obj)
 .debug_abbrev  0x0000415b      0x43d zephyr/libzephyr.a(nrf_rtc_timer.c.obj)
 .debug_abbrev  0x00004598      0x435 zephyr/libzephyr.a(nus.c.obj)
 .debug_abbrev  0x000049cd       0x14 zephyr/arch/arm/core/libarch__arm__core.a(exc_exit.S.obj)
 .debug_abbrev  0x000049e1       0x12 zephyr/arch/arm/core/libarch__arm__core.a(swap_helper.S.obj)
 .debug_abbrev  0x000049f3       0x12 zephyr/arch/arm/core/libarch__arm__core.a(cpu_idle.S.obj)
 .debug_abbrev  0x00004a05       0x14 zephyr/arch/arm/core/libarch__arm__core.a(fault_s.S.obj)
 .debug_abbrev  0x00004a19       0x14 zephyr/arch/arm/core/libarch__arm__core.a(nmi_on_reset.S.obj)
 .debug_abbrev  0x00004a2d       0x14 zephyr/arch/arm/core/libarch__arm__core.a(isr_wrapper.S.obj)
 .debug_abbrev  0x00004a41      0x1f3 zephyr/arch/arm/core/libarch__arm__core.a(swap.c.obj)
 .debug_abbrev  0x00004c34      0x313 zephyr/arch/arm/core/libarch__arm__core.a(irq_manage.c.obj)
 .debug_abbrev  0x00004f47      0x27a zephyr/arch/arm/core/libarch__arm__core.a(thread.c.obj)
 .debug_abbrev  0x000051c1      0x2ef zephyr/arch/arm/core/libarch__arm__core.a(fatal.c.obj)
 .debug_abbrev  0x000054b0      0x19f zephyr/arch/arm/core/libarch__arm__core.a(nmi.c.obj)
 .debug_abbrev  0x0000564f      0x1eb zephyr/arch/arm/core/libarch__arm__core.a(prep_c.c.obj)
 .debug_abbrev  0x0000583a       0x14 zephyr/arch/arm/core/cortex_m/libarch__arm__core__cortex_m.a(reset.S.obj)
 .debug_abbrev  0x0000584e      0x3cb zephyr/arch/arm/core/cortex_m/libarch__arm__core__cortex_m.a(fault.c.obj)
 .debug_abbrev  0x00005c19      0x22b zephyr/arch/arm/core/cortex_m/libarch__arm__core__cortex_m.a(irq_init.c.obj)
 .debug_abbrev  0x00005e44      0x257 zephyr/arch/arm/core/cortex_m/libarch__arm__core__cortex_m.a(thread_abort.c.obj)
 .debug_abbrev  0x0000609b      0x1ee zephyr/arch/arm/core/cortex_m/mpu/libarch__arm__core__cortex_m__mpu.a(arm_core_mpu.c.obj)
 .debug_abbrev  0x00006289      0x3e3 zephyr/arch/arm/core/cortex_m/mpu/libarch__arm__core__cortex_m__mpu.a(arm_mpu.c.obj)
 .debug_abbrev  0x0000666c      0x1ab zephyr/lib/libc/minimal/liblib__libc__minimal.a(string.c.obj)
 .debug_abbrev  0x00006817      0x239 zephyr/lib/libc/minimal/liblib__libc__minimal.a(stdout_console.c.obj)
 .debug_abbrev  0x00006a50      0x2b4 zephyr/subsys/bluetooth/common/libsubsys__bluetooth__common.a(rpa.c.obj)
 .debug_abbrev  0x00006d04      0x54f zephyr/subsys/bluetooth/host/libsubsys__bluetooth__host.a(hci_ecc.c.obj)
 .debug_abbrev  0x00007253      0x1e7 zephyr/subsys/bluetooth/host/libsubsys__bluetooth__host.a(uuid.c.obj)
 .debug_abbrev  0x0000743a      0x7b2 zephyr/subsys/bluetooth/host/libsubsys__bluetooth__host.a(hci_core.c.obj)
 .debug_abbrev  0x00007bec      0x705 zephyr/subsys/bluetooth/host/libsubsys__bluetooth__host.a(conn.c.obj)
 .debug_abbrev  0x000082f1      0x662 zephyr/subsys/bluetooth/host/libsubsys__bluetooth__host.a(l2cap.c.obj)
 .debug_abbrev  0x00008953      0x651 zephyr/subsys/bluetooth/host/libsubsys__bluetooth__host.a(att.c.obj)
 .debug_abbrev  0x00008fa4      0x627 zephyr/subsys/bluetooth/host/libsubsys__bluetooth__host.a(gatt.c.obj)
 .debug_abbrev  0x000095cb      0x6a6 zephyr/subsys/bluetooth/host/libsubsys__bluetooth__host.a(smp.c.obj)
 .debug_abbrev  0x00009c71      0x401 zephyr/subsys/bluetooth/host/libsubsys__bluetooth__host.a(keys.c.obj)
 .debug_abbrev  0x0000a072      0x15f zephyr/subsys/bluetooth/controller/libsubsys__bluetooth__controller.a(mem.c.obj)
 .debug_abbrev  0x0000a1d1      0x148 zephyr/subsys/bluetooth/controller/libsubsys__bluetooth__controller.a(memq.c.obj)
 .debug_abbrev  0x0000a319      0x220 zephyr/subsys/bluetooth/controller/libsubsys__bluetooth__controller.a(mayfly.c.obj)
 .debug_abbrev  0x0000a539       0x92 zephyr/subsys/bluetooth/controller/libsubsys__bluetooth__controller.a(util.c.obj)
 .debug_abbrev  0x0000a5cb      0x507 zephyr/subsys/bluetooth/controller/libsubsys__bluetooth__controller.a(ticker.c.obj)
 .debug_abbrev  0x0000aad2      0x264 zephyr/subsys/bluetooth/controller/libsubsys__bluetooth__controller.a(ll_addr.c.obj)
 .debug_abbrev  0x0000ad36      0x1cf zephyr/subsys/bluetooth/controller/libsubsys__bluetooth__controller.a(ll_tx_pwr.c.obj)
 .debug_abbrev  0x0000af05      0x4dc zephyr/subsys/bluetooth/controller/libsubsys__bluetooth__controller.a(hci_driver.c.obj)
 .debug_abbrev  0x0000b3e1      0x669 zephyr/subsys/bluetooth/controller/libsubsys__bluetooth__controller.a(hci.c.obj)
 .debug_abbrev  0x0000ba4a      0x291 zephyr/subsys/bluetooth/controller/libsubsys__bluetooth__controller.a(crypto.c.obj)
 .debug_abbrev  0x0000bcdb      0x72d zephyr/subsys/bluetooth/controller/libsubsys__bluetooth__controller.a(ctrl.c.obj)
 .debug_abbrev  0x0000c408      0x41e zephyr/subsys/bluetooth/controller/libsubsys__bluetooth__controller.a(ll.c.obj)
 .debug_abbrev  0x0000c826      0x3a6 zephyr/subsys/bluetooth/controller/libsubsys__bluetooth__controller.a(ll_adv.c.obj)
 .debug_abbrev  0x0000cbcc      0x5d7 zephyr/subsys/bluetooth/controller/libsubsys__bluetooth__controller.a(ll_filter.c.obj)
 .debug_abbrev  0x0000d1a3      0x32e zephyr/subsys/bluetooth/controller/libsubsys__bluetooth__controller.a(cntr.c.obj)
 .debug_abbrev  0x0000d4d1      0x430 zephyr/subsys/bluetooth/controller/libsubsys__bluetooth__controller.a(ecb.c.obj)
 .debug_abbrev  0x0000d901      0x6a6 zephyr/subsys/bluetooth/controller/libsubsys__bluetooth__controller.a(radio.c.obj)
 .debug_abbrev  0x0000dfa7      0x35a zephyr/subsys/bluetooth/controller/libsubsys__bluetooth__controller.a(mayfly.c.obj)
 .debug_abbrev  0x0000e301      0x2c1 zephyr/subsys/bluetooth/controller/libsubsys__bluetooth__controller.a(ticker.c.obj)
 .debug_abbrev  0x0000e5c2      0x5e6 zephyr/subsys/net/libsubsys__net.a(buf.c.obj)
 .debug_abbrev  0x0000eba8      0x519 zephyr/drivers/gpio/libdrivers__gpio.a(gpio_nrfx.c.obj)
 .debug_abbrev  0x0000f0c1      0x427 zephyr/drivers/pwm/libdrivers__pwm.a(pwm_nrfx.c.obj)
 .debug_abbrev  0x0000f4e8      0x48c zephyr/drivers/serial/libdrivers__serial.a(uart_nrfx_uarte.c.obj)
 .debug_abbrev  0x0000f974      0x4ab zephyr/drivers/entropy/libdrivers__entropy.a(entropy_nrf5.c.obj)
 .debug_abbrev  0x0000fe1f      0x51d zephyr/modules/nrf/lib/dk_buttons_and_leds/lib..__nrf__lib__dk_buttons_and_leds.a(dk_buttons_and_leds.c.obj)
 .debug_abbrev  0x0001033c      0x270 zephyr/kernel/libkernel.a(device.c.obj)
 .debug_abbrev  0x000105ac      0x1bf zephyr/kernel/libkernel.a(errno.c.obj)
 .debug_abbrev  0x0001076b      0x379 zephyr/kernel/libkernel.a(fatal.c.obj)
 .debug_abbrev  0x00010ae4      0x2b2 zephyr/kernel/libkernel.a(idle.c.obj)
 .debug_abbrev  0x00010d96      0x576 zephyr/kernel/libkernel.a(init.c.obj)
 .debug_abbrev  0x0001130c      0x3b3 zephyr/kernel/libkernel.a(mempool.c.obj)
 .debug_abbrev  0x000116bf      0x4bc zephyr/kernel/libkernel.a(queue.c.obj)
 .debug_abbrev  0x00011b7b      0x5e6 zephyr/kernel/libkernel.a(sched.c.obj)
 .debug_abbrev  0x00012161      0x335 zephyr/kernel/libkernel.a(sem.c.obj)
 .debug_abbrev  0x00012496      0x27b zephyr/kernel/libkernel.a(system_work_q.c.obj)
 .debug_abbrev  0x00012711      0x52a zephyr/kernel/libkernel.a(thread.c.obj)
 .debug_abbrev  0x00012c3b      0x482 zephyr/kernel/libkernel.a(work_q.c.obj)
 .debug_abbrev  0x000130bd      0x3e9 zephyr/kernel/libkernel.a(timeout.c.obj)
 .debug_abbrev  0x000134a6      0x4e5 zephyr/kernel/libkernel.a(poll.c.obj)
 .debug_abbrev  0x0001398b      0x190 zephyr/CMakeFiles/offsets.dir/arch/arm/core/offsets/offsets.c.obj

.debug_line     0x00000000    0x25a7c
 *(SORT_BY_ALIGNMENT(.debug_line) SORT_BY_ALIGNMENT(.debug_line.*) SORT_BY_ALIGNMENT(.debug_line_end))
 .debug_line    0x00000000      0xab6 app/libapp.a(main.c.obj)
 .debug_line    0x00000ab6      0x525 app/libapp.a(board_functions.c.obj)
 .debug_line    0x00000fdb      0x3a2 app/libapp.a(adc.c.obj)
 .debug_line    0x0000137d      0x230 zephyr/libzephyr.a(isr_tables.c.obj)
 .debug_line    0x000015ad      0x516 zephyr/libzephyr.a(fdtable.c.obj)
 .debug_line    0x00001ac3      0x7ba zephyr/libzephyr.a(mempool.c.obj)
 .debug_line    0x0000227d      0x3bc zephyr/libzephyr.a(thread_entry.c.obj)
 .debug_line    0x00002639      0x415 zephyr/libzephyr.a(work_q.c.obj)
 .debug_line    0x00002a4e      0x605 zephyr/libzephyr.a(printk.c.obj)
 .debug_line    0x00003053      0x196 zephyr/libzephyr.a(configs.c.obj)
 .debug_line    0x000031e9      0x5b5 zephyr/libzephyr.a(soc.c.obj)
 .debug_line    0x0000379e      0x1fd zephyr/libzephyr.a(mpu_regions.c.obj)
 .debug_line    0x0000399b      0x191 zephyr/libzephyr.a(utils.c.obj)
 .debug_line    0x00003b2c      0x1b7 zephyr/libzephyr.a(ecc_dh.c.obj)
 .debug_line    0x00003ce3      0x842 zephyr/libzephyr.a(ecc.c.obj)
 .debug_line    0x00004525      0x213 zephyr/libzephyr.a(aes_encrypt.c.obj)
 .debug_line    0x00004738      0x299 zephyr/libzephyr.a(cmac_mode.c.obj)
 .debug_line    0x000049d1      0x24d zephyr/libzephyr.a(system_nrf52810.c.obj)
 .debug_line    0x00004c1e      0x7cc zephyr/libzephyr.a(nrfx_pwm.c.obj)
 .debug_line    0x000053ea      0x47d zephyr/libzephyr.a(rand32_entropy_device.c.obj)
 .debug_line    0x00005867      0x46d zephyr/libzephyr.a(uart_console.c.obj)
 .debug_line    0x00005cd4      0x6ca zephyr/libzephyr.a(nrf_power_clock.c.obj)
 .debug_line    0x0000639e      0x3de zephyr/libzephyr.a(sys_clock_init.c.obj)
 .debug_line    0x0000677c      0x724 zephyr/libzephyr.a(nrf_rtc_timer.c.obj)
 .debug_line    0x00006ea0      0x5e8 zephyr/libzephyr.a(nus.c.obj)
 .debug_line    0x00007488       0x80 zephyr/arch/arm/core/libarch__arm__core.a(exc_exit.S.obj)
 .debug_line    0x00007508       0xc9 zephyr/arch/arm/core/libarch__arm__core.a(swap_helper.S.obj)
 .debug_line    0x000075d1       0xc5 zephyr/arch/arm/core/libarch__arm__core.a(cpu_idle.S.obj)
 .debug_line    0x00007696       0x7e zephyr/arch/arm/core/libarch__arm__core.a(fault_s.S.obj)
 .debug_line    0x00007714       0x74 zephyr/arch/arm/core/libarch__arm__core.a(nmi_on_reset.S.obj)
 .debug_line    0x00007788       0x97 zephyr/arch/arm/core/libarch__arm__core.a(isr_wrapper.S.obj)
 .debug_line    0x0000781f      0x47c zephyr/arch/arm/core/libarch__arm__core.a(swap.c.obj)
 .debug_line    0x00007c9b      0x4ef zephyr/arch/arm/core/libarch__arm__core.a(irq_manage.c.obj)
 .debug_line    0x0000818a      0x4aa zephyr/arch/arm/core/libarch__arm__core.a(thread.c.obj)
 .debug_line    0x00008634      0x51a zephyr/arch/arm/core/libarch__arm__core.a(fatal.c.obj)
 .debug_line    0x00008b4e      0x3cb zephyr/arch/arm/core/libarch__arm__core.a(nmi.c.obj)
 .debug_line    0x00008f19      0x441 zephyr/arch/arm/core/libarch__arm__core.a(prep_c.c.obj)
 .debug_line    0x0000935a       0x86 zephyr/arch/arm/core/cortex_m/libarch__arm__core__cortex_m.a(reset.S.obj)
 .debug_line    0x000093e0      0x5e0 zephyr/arch/arm/core/cortex_m/libarch__arm__core__cortex_m.a(fault.c.obj)
 .debug_line    0x000099c0      0x3da zephyr/arch/arm/core/cortex_m/libarch__arm__core__cortex_m.a(irq_init.c.obj)
 .debug_line    0x00009d9a      0x4ad zephyr/arch/arm/core/cortex_m/libarch__arm__core__cortex_m.a(thread_abort.c.obj)
 .debug_line    0x0000a247      0x50d zephyr/arch/arm/core/cortex_m/mpu/libarch__arm__core__cortex_m__mpu.a(arm_core_mpu.c.obj)
 .debug_line    0x0000a754      0x695 zephyr/arch/arm/core/cortex_m/mpu/libarch__arm__core__cortex_m__mpu.a(arm_mpu.c.obj)
 .debug_line    0x0000ade9      0x30d zephyr/lib/libc/minimal/liblib__libc__minimal.a(string.c.obj)
 .debug_line    0x0000b0f6      0x242 zephyr/lib/libc/minimal/liblib__libc__minimal.a(stdout_console.c.obj)
 .debug_line    0x0000b338      0x4d7 zephyr/subsys/bluetooth/common/libsubsys__bluetooth__common.a(rpa.c.obj)
 .debug_line    0x0000b80f      0x7b0 zephyr/subsys/bluetooth/host/libsubsys__bluetooth__host.a(hci_ecc.c.obj)
 .debug_line    0x0000bfbf      0x1dd zephyr/subsys/bluetooth/host/libsubsys__bluetooth__host.a(uuid.c.obj)
 .debug_line    0x0000c19c     0x18e6 zephyr/subsys/bluetooth/host/libsubsys__bluetooth__host.a(hci_core.c.obj)
 .debug_line    0x0000da82      0xff9 zephyr/subsys/bluetooth/host/libsubsys__bluetooth__host.a(conn.c.obj)
 .debug_line    0x0000ea7b      0x926 zephyr/subsys/bluetooth/host/libsubsys__bluetooth__host.a(l2cap.c.obj)
 .debug_line    0x0000f3a1      0xfaa zephyr/subsys/bluetooth/host/libsubsys__bluetooth__host.a(att.c.obj)
 .debug_line    0x0001034b      0xbe0 zephyr/subsys/bluetooth/host/libsubsys__bluetooth__host.a(gatt.c.obj)
 .debug_line    0x00010f2b     0x11b9 zephyr/subsys/bluetooth/host/libsubsys__bluetooth__host.a(smp.c.obj)
 .debug_line    0x000120e4      0x717 zephyr/subsys/bluetooth/host/libsubsys__bluetooth__host.a(keys.c.obj)
 .debug_line    0x000127fb      0x1f6 zephyr/subsys/bluetooth/controller/libsubsys__bluetooth__controller.a(mem.c.obj)
 .debug_line    0x000129f1       0xe6 zephyr/subsys/bluetooth/controller/libsubsys__bluetooth__controller.a(memq.c.obj)
 .debug_line    0x00012ad7      0x1c2 zephyr/subsys/bluetooth/controller/libsubsys__bluetooth__controller.a(mayfly.c.obj)
 .debug_line    0x00012c99       0xcc zephyr/subsys/bluetooth/controller/libsubsys__bluetooth__controller.a(util.c.obj)
 .debug_line    0x00012d65      0x9c6 zephyr/subsys/bluetooth/controller/libsubsys__bluetooth__controller.a(ticker.c.obj)
 .debug_line    0x0001372b      0x43c zephyr/subsys/bluetooth/controller/libsubsys__bluetooth__controller.a(ll_addr.c.obj)
 .debug_line    0x00013b67      0x3ea zephyr/subsys/bluetooth/controller/libsubsys__bluetooth__controller.a(ll_tx_pwr.c.obj)
 .debug_line    0x00013f51      0x79d zephyr/subsys/bluetooth/controller/libsubsys__bluetooth__controller.a(hci_driver.c.obj)
 .debug_line    0x000146ee      0xd69 zephyr/subsys/bluetooth/controller/libsubsys__bluetooth__controller.a(hci.c.obj)
 .debug_line    0x00015457      0x55b zephyr/subsys/bluetooth/controller/libsubsys__bluetooth__controller.a(crypto.c.obj)
 .debug_line    0x000159b2     0x2b16 zephyr/subsys/bluetooth/controller/libsubsys__bluetooth__controller.a(ctrl.c.obj)
 .debug_line    0x000184c8      0x859 zephyr/subsys/bluetooth/controller/libsubsys__bluetooth__controller.a(ll.c.obj)
 .debug_line    0x00018d21      0x646 zephyr/subsys/bluetooth/controller/libsubsys__bluetooth__controller.a(ll_adv.c.obj)
 .debug_line    0x00019367      0xc84 zephyr/subsys/bluetooth/controller/libsubsys__bluetooth__controller.a(ll_filter.c.obj)
 .debug_line    0x00019feb      0x5d2 zephyr/subsys/bluetooth/controller/libsubsys__bluetooth__controller.a(cntr.c.obj)
 .debug_line    0x0001a5bd      0x79d zephyr/subsys/bluetooth/controller/libsubsys__bluetooth__controller.a(ecb.c.obj)
 .debug_line    0x0001ad5a      0xe68 zephyr/subsys/bluetooth/controller/libsubsys__bluetooth__controller.a(radio.c.obj)
 .debug_line    0x0001bbc2      0x566 zephyr/subsys/bluetooth/controller/libsubsys__bluetooth__controller.a(mayfly.c.obj)
 .debug_line    0x0001c128      0x5bb zephyr/subsys/bluetooth/controller/libsubsys__bluetooth__controller.a(ticker.c.obj)
 .debug_line    0x0001c6e3      0xb64 zephyr/subsys/net/libsubsys__net.a(buf.c.obj)
 .debug_line    0x0001d247      0x8d2 zephyr/drivers/gpio/libdrivers__gpio.a(gpio_nrfx.c.obj)
 .debug_line    0x0001db19      0x657 zephyr/drivers/pwm/libdrivers__pwm.a(pwm_nrfx.c.obj)
 .debug_line    0x0001e170      0x970 zephyr/drivers/serial/libdrivers__serial.a(uart_nrfx_uarte.c.obj)
 .debug_line    0x0001eae0      0x6ed zephyr/drivers/entropy/libdrivers__entropy.a(entropy_nrf5.c.obj)
 .debug_line    0x0001f1cd      0x816 zephyr/modules/nrf/lib/dk_buttons_and_leds/lib..__nrf__lib__dk_buttons_and_leds.a(dk_buttons_and_leds.c.obj)
 .debug_line    0x0001f9e3      0x40a zephyr/kernel/libkernel.a(device.c.obj)
 .debug_line    0x0001fded      0x419 zephyr/kernel/libkernel.a(errno.c.obj)
 .debug_line    0x00020206      0x533 zephyr/kernel/libkernel.a(fatal.c.obj)
 .debug_line    0x00020739      0x54d zephyr/kernel/libkernel.a(idle.c.obj)
 .debug_line    0x00020c86      0x817 zephyr/kernel/libkernel.a(init.c.obj)
 .debug_line    0x0002149d      0x615 zephyr/kernel/libkernel.a(mempool.c.obj)
 .debug_line    0x00021ab2      0x736 zephyr/kernel/libkernel.a(queue.c.obj)
 .debug_line    0x000221e8      0xe82 zephyr/kernel/libkernel.a(sched.c.obj)
 .debug_line    0x0002306a      0x51e zephyr/kernel/libkernel.a(sem.c.obj)
 .debug_line    0x00023588      0x3ce zephyr/kernel/libkernel.a(system_work_q.c.obj)
 .debug_line    0x00023956      0x7c5 zephyr/kernel/libkernel.a(thread.c.obj)
 .debug_line    0x0002411b      0x60b zephyr/kernel/libkernel.a(work_q.c.obj)
 .debug_line    0x00024726      0x7b4 zephyr/kernel/libkernel.a(timeout.c.obj)
 .debug_line    0x00024eda      0x72d zephyr/kernel/libkernel.a(poll.c.obj)
 .debug_line    0x00025607      0x475 zephyr/CMakeFiles/offsets.dir/arch/arm/core/offsets/offsets.c.obj

.debug_frame    0x00000000     0x7c50
 *(SORT_BY_ALIGNMENT(.debug_frame))
 .debug_frame   0x00000000      0x314 app/libapp.a(main.c.obj)
 .debug_frame   0x00000314       0x84 app/libapp.a(board_functions.c.obj)
 .debug_frame   0x00000398       0x2c app/libapp.a(adc.c.obj)
 .debug_frame   0x000003c4       0xb4 zephyr/libzephyr.a(fdtable.c.obj)
 .debug_frame   0x00000478      0x158 zephyr/libzephyr.a(mempool.c.obj)
 .debug_frame   0x000005d0       0x28 zephyr/libzephyr.a(thread_entry.c.obj)
 .debug_frame   0x000005f8       0x58 zephyr/libzephyr.a(work_q.c.obj)
 .debug_frame   0x00000650      0x1a0 zephyr/libzephyr.a(printk.c.obj)
 .debug_frame   0x000007f0       0x20 zephyr/libzephyr.a(configs.c.obj)
 .debug_frame   0x00000810       0x50 zephyr/libzephyr.a(soc.c.obj)
 .debug_frame   0x00000860       0x68 zephyr/libzephyr.a(utils.c.obj)
 .debug_frame   0x000008c8       0x90 zephyr/libzephyr.a(ecc_dh.c.obj)
 .debug_frame   0x00000958      0x518 zephyr/libzephyr.a(ecc.c.obj)
 .debug_frame   0x00000e70       0xac zephyr/libzephyr.a(aes_encrypt.c.obj)
 .debug_frame   0x00000f1c       0xb0 zephyr/libzephyr.a(cmac_mode.c.obj)
 .debug_frame   0x00000fcc       0x68 zephyr/libzephyr.a(system_nrf52810.c.obj)
 .debug_frame   0x00001034      0x128 zephyr/libzephyr.a(nrfx_pwm.c.obj)
 .debug_frame   0x0000115c       0x2c zephyr/libzephyr.a(rand32_entropy_device.c.obj)
 .debug_frame   0x00001188       0x60 zephyr/libzephyr.a(uart_console.c.obj)
 .debug_frame   0x000011e8       0x9c zephyr/libzephyr.a(nrf_power_clock.c.obj)
 .debug_frame   0x00001284       0x70 zephyr/libzephyr.a(sys_clock_init.c.obj)
 .debug_frame   0x000012f4       0x80 zephyr/libzephyr.a(nrf_rtc_timer.c.obj)
 .debug_frame   0x00001374       0x94 zephyr/libzephyr.a(nus.c.obj)
 .debug_frame   0x00001408       0x20 zephyr/arch/arm/core/libarch__arm__core.a(swap.c.obj)
 .debug_frame   0x00001428       0x88 zephyr/arch/arm/core/libarch__arm__core.a(irq_manage.c.obj)
 .debug_frame   0x000014b0       0x30 zephyr/arch/arm/core/libarch__arm__core.a(thread.c.obj)
 .debug_frame   0x000014e0       0x5c zephyr/arch/arm/core/libarch__arm__core.a(fatal.c.obj)
 .debug_frame   0x0000153c       0x2c zephyr/arch/arm/core/libarch__arm__core.a(nmi.c.obj)
 .debug_frame   0x00001568       0x28 zephyr/arch/arm/core/libarch__arm__core.a(prep_c.c.obj)
 .debug_frame   0x00001590       0x94 zephyr/arch/arm/core/cortex_m/libarch__arm__core__cortex_m.a(fault.c.obj)
 .debug_frame   0x00001624       0x20 zephyr/arch/arm/core/cortex_m/libarch__arm__core__cortex_m.a(irq_init.c.obj)
 .debug_frame   0x00001644       0x34 zephyr/arch/arm/core/cortex_m/libarch__arm__core__cortex_m.a(thread_abort.c.obj)
 .debug_frame   0x00001678       0x40 zephyr/arch/arm/core/cortex_m/mpu/libarch__arm__core__cortex_m__mpu.a(arm_core_mpu.c.obj)
 .debug_frame   0x000016b8       0xa0 zephyr/arch/arm/core/cortex_m/mpu/libarch__arm__core__cortex_m__mpu.a(arm_mpu.c.obj)
 .debug_frame   0x00001758      0x170 zephyr/lib/libc/minimal/liblib__libc__minimal.a(string.c.obj)
 .debug_frame   0x000018c8       0xb8 zephyr/lib/libc/minimal/liblib__libc__minimal.a(stdout_console.c.obj)
 .debug_frame   0x00001980       0x78 zephyr/subsys/bluetooth/common/libsubsys__bluetooth__common.a(rpa.c.obj)
 .debug_frame   0x000019f8       0xc4 zephyr/subsys/bluetooth/host/libsubsys__bluetooth__host.a(hci_ecc.c.obj)
 .debug_frame   0x00001abc       0x5c zephyr/subsys/bluetooth/host/libsubsys__bluetooth__host.a(uuid.c.obj)
 .debug_frame   0x00001b18      0xa78 zephyr/subsys/bluetooth/host/libsubsys__bluetooth__host.a(hci_core.c.obj)
 .debug_frame   0x00002590      0x5c8 zephyr/subsys/bluetooth/host/libsubsys__bluetooth__host.a(conn.c.obj)
 .debug_frame   0x00002b58      0x22c zephyr/subsys/bluetooth/host/libsubsys__bluetooth__host.a(l2cap.c.obj)
 .debug_frame   0x00002d84      0x640 zephyr/subsys/bluetooth/host/libsubsys__bluetooth__host.a(att.c.obj)
 .debug_frame   0x000033c4      0x464 zephyr/subsys/bluetooth/host/libsubsys__bluetooth__host.a(gatt.c.obj)
 .debug_frame   0x00003828      0x794 zephyr/subsys/bluetooth/host/libsubsys__bluetooth__host.a(smp.c.obj)
 .debug_frame   0x00003fbc      0x148 zephyr/subsys/bluetooth/host/libsubsys__bluetooth__host.a(keys.c.obj)
 .debug_frame   0x00004104       0xf0 zephyr/subsys/bluetooth/controller/libsubsys__bluetooth__controller.a(mem.c.obj)
 .debug_frame   0x000041f4       0x68 zephyr/subsys/bluetooth/controller/libsubsys__bluetooth__controller.a(memq.c.obj)
 .debug_frame   0x0000425c       0xb8 zephyr/subsys/bluetooth/controller/libsubsys__bluetooth__controller.a(mayfly.c.obj)
 .debug_frame   0x00004314       0x28 zephyr/subsys/bluetooth/controller/libsubsys__bluetooth__controller.a(util.c.obj)
 .debug_frame   0x0000433c      0x208 zephyr/subsys/bluetooth/controller/libsubsys__bluetooth__controller.a(ticker.c.obj)
 .debug_frame   0x00004544       0x54 zephyr/subsys/bluetooth/controller/libsubsys__bluetooth__controller.a(ll_addr.c.obj)
 .debug_frame   0x00004598       0x20 zephyr/subsys/bluetooth/controller/libsubsys__bluetooth__controller.a(ll_tx_pwr.c.obj)
 .debug_frame   0x000045b8       0xa4 zephyr/subsys/bluetooth/controller/libsubsys__bluetooth__controller.a(hci_driver.c.obj)
 .debug_frame   0x0000465c      0x218 zephyr/subsys/bluetooth/controller/libsubsys__bluetooth__controller.a(hci.c.obj)
 .debug_frame   0x00004874       0x60 zephyr/subsys/bluetooth/controller/libsubsys__bluetooth__controller.a(crypto.c.obj)
 .debug_frame   0x000048d4      0xcac zephyr/subsys/bluetooth/controller/libsubsys__bluetooth__controller.a(ctrl.c.obj)
 .debug_frame   0x00005580       0xb0 zephyr/subsys/bluetooth/controller/libsubsys__bluetooth__controller.a(ll.c.obj)
 .debug_frame   0x00005630       0xcc zephyr/subsys/bluetooth/controller/libsubsys__bluetooth__controller.a(ll_adv.c.obj)
 .debug_frame   0x000056fc      0x410 zephyr/subsys/bluetooth/controller/libsubsys__bluetooth__controller.a(ll_filter.c.obj)
 .debug_frame   0x00005b0c       0x60 zephyr/subsys/bluetooth/controller/libsubsys__bluetooth__controller.a(cntr.c.obj)
 .debug_frame   0x00005b6c       0xec zephyr/subsys/bluetooth/controller/libsubsys__bluetooth__controller.a(ecb.c.obj)
 .debug_frame   0x00005c58      0x51c zephyr/subsys/bluetooth/controller/libsubsys__bluetooth__controller.a(radio.c.obj)
 .debug_frame   0x00006174       0x50 zephyr/subsys/bluetooth/controller/libsubsys__bluetooth__controller.a(mayfly.c.obj)
 .debug_frame   0x000061c4       0x4c zephyr/subsys/bluetooth/controller/libsubsys__bluetooth__controller.a(ticker.c.obj)
 .debug_frame   0x00006210      0x460 zephyr/subsys/net/libsubsys__net.a(buf.c.obj)
 .debug_frame   0x00006670      0x140 zephyr/drivers/gpio/libdrivers__gpio.a(gpio_nrfx.c.obj)
 .debug_frame   0x000067b0       0x5c zephyr/drivers/pwm/libdrivers__pwm.a(pwm_nrfx.c.obj)
 .debug_frame   0x0000680c      0x1b8 zephyr/drivers/serial/libdrivers__serial.a(uart_nrfx_uarte.c.obj)
 .debug_frame   0x000069c4       0xd4 zephyr/drivers/entropy/libdrivers__entropy.a(entropy_nrf5.c.obj)
 .debug_frame   0x00006a98      0x150 zephyr/modules/nrf/lib/dk_buttons_and_leds/lib..__nrf__lib__dk_buttons_and_leds.a(dk_buttons_and_leds.c.obj)
 .debug_frame   0x00006be8       0x68 zephyr/kernel/libkernel.a(device.c.obj)
 .debug_frame   0x00006c50       0x20 zephyr/kernel/libkernel.a(errno.c.obj)
 .debug_frame   0x00006c70       0x9c zephyr/kernel/libkernel.a(fatal.c.obj)
 .debug_frame   0x00006d0c       0x38 zephyr/kernel/libkernel.a(idle.c.obj)
 .debug_frame   0x00006d44       0xa0 zephyr/kernel/libkernel.a(init.c.obj)
 .debug_frame   0x00006de4      0x110 zephyr/kernel/libkernel.a(mempool.c.obj)
 .debug_frame   0x00006ef4      0x134 zephyr/kernel/libkernel.a(queue.c.obj)
 .debug_frame   0x00007028      0x4c8 zephyr/kernel/libkernel.a(sched.c.obj)
 .debug_frame   0x000074f0       0x68 zephyr/kernel/libkernel.a(sem.c.obj)
 .debug_frame   0x00007558       0x28 zephyr/kernel/libkernel.a(system_work_q.c.obj)
 .debug_frame   0x00007580      0x21c zephyr/kernel/libkernel.a(thread.c.obj)
 .debug_frame   0x0000779c       0xd0 zephyr/kernel/libkernel.a(work_q.c.obj)
 .debug_frame   0x0000786c      0x154 zephyr/kernel/libkernel.a(timeout.c.obj)
 .debug_frame   0x000079c0      0x100 zephyr/kernel/libkernel.a(poll.c.obj)
 .debug_frame   0x00007ac0       0x20 zephyr/CMakeFiles/offsets.dir/arch/arm/core/offsets/offsets.c.obj
 .debug_frame   0x00007ae0       0x4c c:/program files (x86)/gnu tools arm embedded/7 2018-q2-update/bin/../lib/gcc/arm-none-eabi/7.3.1/thumb/v7e-m\libgcc.a(_arm_addsubsf3.o)
 .debug_frame   0x00007b2c       0x38 c:/program files (x86)/gnu tools arm embedded/7 2018-q2-update/bin/../lib/gcc/arm-none-eabi/7.3.1/thumb/v7e-m\libgcc.a(_arm_muldivsf3.o)
 .debug_frame   0x00007b64       0x24 c:/program files (x86)/gnu tools arm embedded/7 2018-q2-update/bin/../lib/gcc/arm-none-eabi/7.3.1/thumb/v7e-m\libgcc.a(_arm_fixsfsi.o)
 .debug_frame   0x00007b88       0x24 c:/program files (x86)/gnu tools arm embedded/7 2018-q2-update/bin/../lib/gcc/arm-none-eabi/7.3.1/thumb/v7e-m\libgcc.a(_arm_fixunssfsi.o)
 .debug_frame   0x00007bac       0x44 c:/program files (x86)/gnu tools arm embedded/7 2018-q2-update/bin/../lib/gcc/arm-none-eabi/7.3.1/thumb/v7e-m\libgcc.a(_aeabi_ldivmod.o)
 .debug_frame   0x00007bf0       0x2c c:/program files (x86)/gnu tools arm embedded/7 2018-q2-update/bin/../lib/gcc/arm-none-eabi/7.3.1/thumb/v7e-m\libgcc.a(_aeabi_uldivmod.o)
 .debug_frame   0x00007c1c       0x34 c:/program files (x86)/gnu tools arm embedded/7 2018-q2-update/bin/../lib/gcc/arm-none-eabi/7.3.1/thumb/v7e-m\libgcc.a(_udivmoddi4.o)

.debug_str      0x00000000    0x13ba8
 *(SORT_BY_ALIGNMENT(.debug_str))
 .debug_str     0x00000000     0x147e app/libapp.a(main.c.obj)
                               0x1abf (size before relaxing)
 .debug_str     0x0000147e       0x19 app/libapp.a(board_functions.c.obj)
                                0xa43 (size before relaxing)
 .debug_str     0x00001497      0x22b app/libapp.a(adc.c.obj)
                                0x8a6 (size before relaxing)
 .debug_str     0x000016c2       0x76 zephyr/libzephyr.a(isr_tables.c.obj)
                                0x366 (size before relaxing)
 .debug_str     0x00001738      0x178 zephyr/libzephyr.a(fdtable.c.obj)
                                0x8af (size before relaxing)
 .debug_str     0x000018b0      0x2a4 zephyr/libzephyr.a(mempool.c.obj)
                                0x973 (size before relaxing)
 .debug_str     0x00001b54       0x77 zephyr/libzephyr.a(thread_entry.c.obj)
                                0x686 (size before relaxing)
 .debug_str     0x00001bcb      0x160 zephyr/libzephyr.a(work_q.c.obj)
                                0x858 (size before relaxing)
 .debug_str     0x00001d2b      0x1fd zephyr/libzephyr.a(printk.c.obj)
                                0x975 (size before relaxing)
 .debug_str     0x00001f28       0x2f zephyr/libzephyr.a(configs.c.obj)
                                0x1bd (size before relaxing)
 .debug_str     0x00001f57      0x358 zephyr/libzephyr.a(soc.c.obj)
                                0xa8e (size before relaxing)
 .debug_str     0x000022af       0x4e zephyr/libzephyr.a(mpu_regions.c.obj)
                                0x320 (size before relaxing)
 .debug_str     0x000022fd       0x86 zephyr/libzephyr.a(utils.c.obj)
                                0x2cc (size before relaxing)
 .debug_str     0x00002383      0x1e7 zephyr/libzephyr.a(ecc_dh.c.obj)
                                0x467 (size before relaxing)
 .debug_str     0x0000256a      0x389 zephyr/libzephyr.a(ecc.c.obj)
                                0x7aa (size before relaxing)
 .debug_str     0x000028f3       0xf9 zephyr/libzephyr.a(aes_encrypt.c.obj)
                                0x337 (size before relaxing)
 .debug_str     0x000029ec      0x10b zephyr/libzephyr.a(cmac_mode.c.obj)
                                0x3be (size before relaxing)
 .debug_str     0x00002af7      0x2e8 zephyr/libzephyr.a(system_nrf52810.c.obj)
                                0x821 (size before relaxing)
 .debug_str     0x00002ddf     0x1113 zephyr/libzephyr.a(nrfx_pwm.c.obj)
                               0x19f8 (size before relaxing)
 .debug_str     0x00003ef2       0xe9 zephyr/libzephyr.a(rand32_entropy_device.c.obj)
                                0x87c (size before relaxing)
 .debug_str     0x00003fdb      0x10d zephyr/libzephyr.a(uart_console.c.obj)
                                0x9e0 (size before relaxing)
 .debug_str     0x000040e8      0x554 zephyr/libzephyr.a(nrf_power_clock.c.obj)
                               0x1175 (size before relaxing)
 .debug_str     0x0000463c      0x11a zephyr/libzephyr.a(sys_clock_init.c.obj)
                                0x855 (size before relaxing)
 .debug_str     0x00004756      0x396 zephyr/libzephyr.a(nrf_rtc_timer.c.obj)
                               0x1028 (size before relaxing)
 .debug_str     0x00004aec      0x2ec zephyr/libzephyr.a(nus.c.obj)
                                0xba0 (size before relaxing)
 .debug_str     0x00004dd8       0x4e zephyr/arch/arm/core/libarch__arm__core.a(exc_exit.S.obj)
                                 0xac (size before relaxing)
 .debug_str     0x00004e26       0x43 zephyr/arch/arm/core/libarch__arm__core.a(swap_helper.S.obj)
                                 0xaf (size before relaxing)
 .debug_str     0x00004e69       0x40 zephyr/arch/arm/core/libarch__arm__core.a(cpu_idle.S.obj)
                                 0xac (size before relaxing)
 .debug_str     0x00004ea9       0x3f zephyr/arch/arm/core/libarch__arm__core.a(fault_s.S.obj)
                                 0xab (size before relaxing)
 .debug_str     0x00004ee8       0x44 zephyr/arch/arm/core/libarch__arm__core.a(nmi_on_reset.S.obj)
                                 0xb0 (size before relaxing)
 .debug_str     0x00004f2c       0x43 zephyr/arch/arm/core/libarch__arm__core.a(isr_wrapper.S.obj)
                                 0xaf (size before relaxing)
 .debug_str     0x00004f6f       0x51 zephyr/arch/arm/core/libarch__arm__core.a(swap.c.obj)
                                0x741 (size before relaxing)
 .debug_str     0x00004fc0      0x106 zephyr/arch/arm/core/libarch__arm__core.a(irq_manage.c.obj)
                                0xa75 (size before relaxing)
 .debug_str     0x000050c6      0x10b zephyr/arch/arm/core/libarch__arm__core.a(thread.c.obj)
                                0x7bc (size before relaxing)
 .debug_str     0x000051d1      0x2ce zephyr/arch/arm/core/libarch__arm__core.a(fatal.c.obj)
                                0xa1b (size before relaxing)
 .debug_str     0x0000549f       0x5b zephyr/arch/arm/core/libarch__arm__core.a(nmi.c.obj)
                                0x62e (size before relaxing)
 .debug_str     0x000054fa      0x29b zephyr/arch/arm/core/libarch__arm__core.a(prep_c.c.obj)
                                0x8e5 (size before relaxing)
 .debug_str     0x00005795       0x46 zephyr/arch/arm/core/cortex_m/libarch__arm__core__cortex_m.a(reset.S.obj)
                                 0xb2 (size before relaxing)
 .debug_str     0x000057db       0xe8 zephyr/arch/arm/core/cortex_m/libarch__arm__core__cortex_m.a(fault.c.obj)
                                0xad6 (size before relaxing)
 .debug_str     0x000058c3       0x49 zephyr/arch/arm/core/cortex_m/libarch__arm__core__cortex_m.a(irq_init.c.obj)
                                0x8f5 (size before relaxing)
 .debug_str     0x0000590c       0x87 zephyr/arch/arm/core/cortex_m/libarch__arm__core__cortex_m.a(thread_abort.c.obj)
                                0x79a (size before relaxing)
 .debug_str     0x00005993      0x177 zephyr/arch/arm/core/cortex_m/mpu/libarch__arm__core__cortex_m__mpu.a(arm_core_mpu.c.obj)
                                0xab5 (size before relaxing)
 .debug_str     0x00005b0a      0x27f zephyr/arch/arm/core/cortex_m/mpu/libarch__arm__core__cortex_m__mpu.a(arm_mpu.c.obj)
                                0xda7 (size before relaxing)
 .debug_str     0x00005d89       0xe8 zephyr/lib/libc/minimal/liblib__libc__minimal.a(string.c.obj)
                                0x33c (size before relaxing)
 .debug_str     0x00005e71       0xbb zephyr/lib/libc/minimal/liblib__libc__minimal.a(stdout_console.c.obj)
                                0x339 (size before relaxing)
 .debug_str     0x00005f2c       0xa5 zephyr/subsys/bluetooth/common/libsubsys__bluetooth__common.a(rpa.c.obj)
                                0x857 (size before relaxing)
 .debug_str     0x00005fd1      0x6f8 zephyr/subsys/bluetooth/host/libsubsys__bluetooth__host.a(hci_ecc.c.obj)
                               0x140b (size before relaxing)
 .debug_str     0x000066c9       0xaa zephyr/subsys/bluetooth/host/libsubsys__bluetooth__host.a(uuid.c.obj)
                                0x335 (size before relaxing)
 .debug_str     0x00006773     0x1a7d zephyr/subsys/bluetooth/host/libsubsys__bluetooth__host.a(hci_core.c.obj)
                               0x31aa (size before relaxing)
 .debug_str     0x000081f0      0x7aa zephyr/subsys/bluetooth/host/libsubsys__bluetooth__host.a(conn.c.obj)
                               0x21ac (size before relaxing)
 .debug_str     0x0000899a      0x3c1 zephyr/subsys/bluetooth/host/libsubsys__bluetooth__host.a(l2cap.c.obj)
                               0x17d4 (size before relaxing)
 .debug_str     0x00008d5b      0x74c zephyr/subsys/bluetooth/host/libsubsys__bluetooth__host.a(att.c.obj)
                               0x1e22 (size before relaxing)
 .debug_str     0x000094a7      0x414 zephyr/subsys/bluetooth/host/libsubsys__bluetooth__host.a(gatt.c.obj)
                               0x1984 (size before relaxing)
 .debug_str     0x000098bb      0x9b2 zephyr/subsys/bluetooth/host/libsubsys__bluetooth__host.a(smp.c.obj)
                               0x1e9b (size before relaxing)
 .debug_str     0x0000a26d       0xae zephyr/subsys/bluetooth/host/libsubsys__bluetooth__host.a(keys.c.obj)
                                0xe03 (size before relaxing)
 .debug_str     0x0000a31b       0xe3 zephyr/subsys/bluetooth/controller/libsubsys__bluetooth__controller.a(mem.c.obj)
                                0x35e (size before relaxing)
 .debug_str     0x0000a3fe       0xa0 zephyr/subsys/bluetooth/controller/libsubsys__bluetooth__controller.a(memq.c.obj)
                                0x2cf (size before relaxing)
 .debug_str     0x0000a49e      0x125 zephyr/subsys/bluetooth/controller/libsubsys__bluetooth__controller.a(mayfly.c.obj)
                                0x3d5 (size before relaxing)
 .debug_str     0x0000a5c3       0x7d zephyr/subsys/bluetooth/controller/libsubsys__bluetooth__controller.a(util.c.obj)
                                0x29b (size before relaxing)
 .debug_str     0x0000a640      0x760 zephyr/subsys/bluetooth/controller/libsubsys__bluetooth__controller.a(ticker.c.obj)
                               0x1043 (size before relaxing)
 .debug_str     0x0000ada0       0xa7 zephyr/subsys/bluetooth/controller/libsubsys__bluetooth__controller.a(ll_addr.c.obj)
                                0x862 (size before relaxing)
 .debug_str     0x0000ae47       0x63 zephyr/subsys/bluetooth/controller/libsubsys__bluetooth__controller.a(ll_tx_pwr.c.obj)
                                0x6f0 (size before relaxing)
 .debug_str     0x0000aeaa      0x3b2 zephyr/subsys/bluetooth/controller/libsubsys__bluetooth__controller.a(hci_driver.c.obj)
                               0x1026 (size before relaxing)
 .debug_str     0x0000b25c     0x1365 zephyr/subsys/bluetooth/controller/libsubsys__bluetooth__controller.a(hci.c.obj)
                               0x3008 (size before relaxing)
 .debug_str     0x0000c5c1       0xa9 zephyr/subsys/bluetooth/controller/libsubsys__bluetooth__controller.a(crypto.c.obj)
                                0x882 (size before relaxing)
 .debug_str     0x0000c66a     0x2413 zephyr/subsys/bluetooth/controller/libsubsys__bluetooth__controller.a(ctrl.c.obj)
                               0x433b (size before relaxing)
 .debug_str     0x0000ea7d      0x1ea zephyr/subsys/bluetooth/controller/libsubsys__bluetooth__controller.a(ll.c.obj)
                                0xe9f (size before relaxing)
 .debug_str     0x0000ec67      0x16f zephyr/subsys/bluetooth/controller/libsubsys__bluetooth__controller.a(ll_adv.c.obj)
                                0xd4f (size before relaxing)
 .debug_str     0x0000edd6      0x224 zephyr/subsys/bluetooth/controller/libsubsys__bluetooth__controller.a(ll_filter.c.obj)
                               0x1217 (size before relaxing)
 .debug_str     0x0000effa       0xbc zephyr/subsys/bluetooth/controller/libsubsys__bluetooth__controller.a(cntr.c.obj)
                                0xad8 (size before relaxing)
 .debug_str     0x0000f0b6      0x1da zephyr/subsys/bluetooth/controller/libsubsys__bluetooth__controller.a(ecb.c.obj)
                                0xdb8 (size before relaxing)
 .debug_str     0x0000f290      0xfc0 zephyr/subsys/bluetooth/controller/libsubsys__bluetooth__controller.a(radio.c.obj)
                               0x20ab (size before relaxing)
 .debug_str     0x00010250       0xa0 zephyr/subsys/bluetooth/controller/libsubsys__bluetooth__controller.a(mayfly.c.obj)
                                0xbaf (size before relaxing)
 .debug_str     0x000102f0      0x10d zephyr/subsys/bluetooth/controller/libsubsys__bluetooth__controller.a(ticker.c.obj)
                                0x997 (size before relaxing)
 .debug_str     0x000103fd      0x42d zephyr/subsys/net/libsubsys__net.a(buf.c.obj)
                                0xfde (size before relaxing)
 .debug_str     0x0001082a      0x729 zephyr/drivers/gpio/libdrivers__gpio.a(gpio_nrfx.c.obj)
                               0x14a1 (size before relaxing)
 .debug_str     0x00010f53      0x206 zephyr/drivers/pwm/libdrivers__pwm.a(pwm_nrfx.c.obj)
                               0x11ea (size before relaxing)
 .debug_str     0x00011159      0xdd4 zephyr/drivers/serial/libdrivers__serial.a(uart_nrfx_uarte.c.obj)
                               0x1ac6 (size before relaxing)
 .debug_str     0x00011f2d      0x2c4 zephyr/drivers/entropy/libdrivers__entropy.a(entropy_nrf5.c.obj)
                                0xe88 (size before relaxing)
 .debug_str     0x000121f1      0x2e8 zephyr/modules/nrf/lib/dk_buttons_and_leds/lib..__nrf__lib__dk_buttons_and_leds.a(dk_buttons_and_leds.c.obj)
                                0xdd5 (size before relaxing)
 .debug_str     0x000124d9      0x13b zephyr/kernel/libkernel.a(device.c.obj)
                                0x785 (size before relaxing)
 .debug_str     0x00012614       0x36 zephyr/kernel/libkernel.a(errno.c.obj)
                                0x7dc (size before relaxing)
 .debug_str     0x0001264a       0x9a zephyr/kernel/libkernel.a(fatal.c.obj)
                                0xac5 (size before relaxing)
 .debug_str     0x000126e4       0xc6 zephyr/kernel/libkernel.a(idle.c.obj)
                                0x89d (size before relaxing)
 .debug_str     0x000127aa      0x29f zephyr/kernel/libkernel.a(init.c.obj)
                               0x13cb (size before relaxing)
 .debug_str     0x00012a49      0x1fb zephyr/kernel/libkernel.a(mempool.c.obj)
                                0xb4a (size before relaxing)
 .debug_str     0x00012c44      0x227 zephyr/kernel/libkernel.a(queue.c.obj)
                                0xc6e (size before relaxing)
 .debug_str     0x00012e6b      0x6de zephyr/kernel/libkernel.a(sched.c.obj)
                               0x119e (size before relaxing)
 .debug_str     0x00013549       0x76 zephyr/kernel/libkernel.a(sem.c.obj)
                                0x9e8 (size before relaxing)
 .debug_str     0x000135bf       0xba zephyr/kernel/libkernel.a(system_work_q.c.obj)
                                0x842 (size before relaxing)
 .debug_str     0x00013679      0x209 zephyr/kernel/libkernel.a(thread.c.obj)
                                0xea5 (size before relaxing)
 .debug_str     0x00013882       0xc2 zephyr/kernel/libkernel.a(work_q.c.obj)
                                0xc13 (size before relaxing)
 .debug_str     0x00013944       0xba zephyr/kernel/libkernel.a(timeout.c.obj)
                                0xa7c (size before relaxing)
 .debug_str     0x000139fe      0x154 zephyr/kernel/libkernel.a(poll.c.obj)
                                0xc9d (size before relaxing)
 .debug_str     0x00013b52       0x56 zephyr/CMakeFiles/offsets.dir/arch/arm/core/offsets/offsets.c.obj
                                0x6ce (size before relaxing)

.debug_loc      0x00000000    0x37239
 *(SORT_BY_ALIGNMENT(.debug_loc))
 .debug_loc     0x00000000      0xd7c app/libapp.a(main.c.obj)
 .debug_loc     0x00000d7c      0x4a7 app/libapp.a(board_functions.c.obj)
 .debug_loc     0x00001223      0x25f zephyr/libzephyr.a(fdtable.c.obj)
 .debug_loc     0x00001482      0xd73 zephyr/libzephyr.a(mempool.c.obj)
 .debug_loc     0x000021f5       0x97 zephyr/libzephyr.a(thread_entry.c.obj)
 .debug_loc     0x0000228c      0x2d3 zephyr/libzephyr.a(work_q.c.obj)
 .debug_loc     0x0000255f      0xbaf zephyr/libzephyr.a(printk.c.obj)
 .debug_loc     0x0000310e      0x10d zephyr/libzephyr.a(soc.c.obj)
 .debug_loc     0x0000321b      0x1b6 zephyr/libzephyr.a(utils.c.obj)
 .debug_loc     0x000033d1      0x21d zephyr/libzephyr.a(ecc_dh.c.obj)
 .debug_loc     0x000035ee     0x1e23 zephyr/libzephyr.a(ecc.c.obj)
 .debug_loc     0x00005411      0x22e zephyr/libzephyr.a(aes_encrypt.c.obj)
 .debug_loc     0x0000563f      0x363 zephyr/libzephyr.a(cmac_mode.c.obj)
 .debug_loc     0x000059a2      0xd15 zephyr/libzephyr.a(nrfx_pwm.c.obj)
 .debug_loc     0x000066b7       0x95 zephyr/libzephyr.a(rand32_entropy_device.c.obj)
 .debug_loc     0x0000674c       0xd7 zephyr/libzephyr.a(uart_console.c.obj)
 .debug_loc     0x00006823      0x545 zephyr/libzephyr.a(nrf_power_clock.c.obj)
 .debug_loc     0x00006d68       0x42 zephyr/libzephyr.a(sys_clock_init.c.obj)
 .debug_loc     0x00006daa      0x626 zephyr/libzephyr.a(nrf_rtc_timer.c.obj)
 .debug_loc     0x000073d0      0x32e zephyr/libzephyr.a(nus.c.obj)
 .debug_loc     0x000076fe       0x35 zephyr/arch/arm/core/libarch__arm__core.a(swap.c.obj)
 .debug_loc     0x00007733      0x19c zephyr/arch/arm/core/libarch__arm__core.a(irq_manage.c.obj)
 .debug_loc     0x000078cf      0x1ea zephyr/arch/arm/core/libarch__arm__core.a(thread.c.obj)
 .debug_loc     0x00007ab9      0x113 zephyr/arch/arm/core/libarch__arm__core.a(fatal.c.obj)
 .debug_loc     0x00007bcc      0x434 zephyr/arch/arm/core/cortex_m/libarch__arm__core__cortex_m.a(fault.c.obj)
 .debug_loc     0x00008000       0x5e zephyr/arch/arm/core/cortex_m/libarch__arm__core__cortex_m.a(irq_init.c.obj)
 .debug_loc     0x0000805e       0x3f zephyr/arch/arm/core/cortex_m/libarch__arm__core__cortex_m.a(thread_abort.c.obj)
 .debug_loc     0x0000809d       0x21 zephyr/arch/arm/core/cortex_m/mpu/libarch__arm__core__cortex_m__mpu.a(arm_core_mpu.c.obj)
 .debug_loc     0x000080be      0x5a9 zephyr/arch/arm/core/cortex_m/mpu/libarch__arm__core__cortex_m__mpu.a(arm_mpu.c.obj)
 .debug_loc     0x00008667      0x9ab zephyr/lib/libc/minimal/liblib__libc__minimal.a(string.c.obj)
 .debug_loc     0x00009012      0x44d zephyr/lib/libc/minimal/liblib__libc__minimal.a(stdout_console.c.obj)
 .debug_loc     0x0000945f      0x188 zephyr/subsys/bluetooth/common/libsubsys__bluetooth__common.a(rpa.c.obj)
 .debug_loc     0x000095e7      0x77c zephyr/subsys/bluetooth/host/libsubsys__bluetooth__host.a(hci_ecc.c.obj)
 .debug_loc     0x00009d63      0x260 zephyr/subsys/bluetooth/host/libsubsys__bluetooth__host.a(uuid.c.obj)
 .debug_loc     0x00009fc3     0x461e zephyr/subsys/bluetooth/host/libsubsys__bluetooth__host.a(hci_core.c.obj)
 .debug_loc     0x0000e5e1     0x255b zephyr/subsys/bluetooth/host/libsubsys__bluetooth__host.a(conn.c.obj)
 .debug_loc     0x00010b3c      0xe2a zephyr/subsys/bluetooth/host/libsubsys__bluetooth__host.a(l2cap.c.obj)
 .debug_loc     0x00011966     0x2daf zephyr/subsys/bluetooth/host/libsubsys__bluetooth__host.a(att.c.obj)
 .debug_loc     0x00014715     0x271d zephyr/subsys/bluetooth/host/libsubsys__bluetooth__host.a(gatt.c.obj)
 .debug_loc     0x00016e32     0x2aad zephyr/subsys/bluetooth/host/libsubsys__bluetooth__host.a(smp.c.obj)
 .debug_loc     0x000198df      0x918 zephyr/subsys/bluetooth/host/libsubsys__bluetooth__host.a(keys.c.obj)
 .debug_loc     0x0001a1f7      0x3b9 zephyr/subsys/bluetooth/controller/libsubsys__bluetooth__controller.a(mem.c.obj)
 .debug_loc     0x0001a5b0      0x12d zephyr/subsys/bluetooth/controller/libsubsys__bluetooth__controller.a(memq.c.obj)
 .debug_loc     0x0001a6dd      0x407 zephyr/subsys/bluetooth/controller/libsubsys__bluetooth__controller.a(mayfly.c.obj)
 .debug_loc     0x0001aae4       0x73 zephyr/subsys/bluetooth/controller/libsubsys__bluetooth__controller.a(util.c.obj)
 .debug_loc     0x0001ab57     0x1fab zephyr/subsys/bluetooth/controller/libsubsys__bluetooth__controller.a(ticker.c.obj)
 .debug_loc     0x0001cb02      0x100 zephyr/subsys/bluetooth/controller/libsubsys__bluetooth__controller.a(ll_addr.c.obj)
 .debug_loc     0x0001cc02      0x544 zephyr/subsys/bluetooth/controller/libsubsys__bluetooth__controller.a(hci_driver.c.obj)
 .debug_loc     0x0001d146     0x4a53 zephyr/subsys/bluetooth/controller/libsubsys__bluetooth__controller.a(hci.c.obj)
 .debug_loc     0x00021b99      0x12e zephyr/subsys/bluetooth/controller/libsubsys__bluetooth__controller.a(crypto.c.obj)
 .debug_loc     0x00021cc7     0x7e3c zephyr/subsys/bluetooth/controller/libsubsys__bluetooth__controller.a(ctrl.c.obj)
 .debug_loc     0x00029b03      0x149 zephyr/subsys/bluetooth/controller/libsubsys__bluetooth__controller.a(ll.c.obj)
 .debug_loc     0x00029c4c      0x7ad zephyr/subsys/bluetooth/controller/libsubsys__bluetooth__controller.a(ll_adv.c.obj)
 .debug_loc     0x0002a3f9     0x12de zephyr/subsys/bluetooth/controller/libsubsys__bluetooth__controller.a(ll_filter.c.obj)
 .debug_loc     0x0002b6d7      0x139 zephyr/subsys/bluetooth/controller/libsubsys__bluetooth__controller.a(cntr.c.obj)
 .debug_loc     0x0002b810      0x3b2 zephyr/subsys/bluetooth/controller/libsubsys__bluetooth__controller.a(ecb.c.obj)
 .debug_loc     0x0002bbc2     0x101e zephyr/subsys/bluetooth/controller/libsubsys__bluetooth__controller.a(radio.c.obj)
 .debug_loc     0x0002cbe0      0x17b zephyr/subsys/bluetooth/controller/libsubsys__bluetooth__controller.a(mayfly.c.obj)
 .debug_loc     0x0002cd5b      0x16f zephyr/subsys/bluetooth/controller/libsubsys__bluetooth__controller.a(ticker.c.obj)
 .debug_loc     0x0002ceca     0x14cc zephyr/subsys/net/libsubsys__net.a(buf.c.obj)
 .debug_loc     0x0002e396     0x108b zephyr/drivers/gpio/libdrivers__gpio.a(gpio_nrfx.c.obj)
 .debug_loc     0x0002f421      0x3d7 zephyr/drivers/pwm/libdrivers__pwm.a(pwm_nrfx.c.obj)
 .debug_loc     0x0002f7f8     0x105d zephyr/drivers/serial/libdrivers__serial.a(uart_nrfx_uarte.c.obj)
 .debug_loc     0x00030855      0x7ff zephyr/drivers/entropy/libdrivers__entropy.a(entropy_nrf5.c.obj)
 .debug_loc     0x00031054      0xc8c zephyr/modules/nrf/lib/dk_buttons_and_leds/lib..__nrf__lib__dk_buttons_and_leds.a(dk_buttons_and_leds.c.obj)
 .debug_loc     0x00031ce0       0xa2 zephyr/kernel/libkernel.a(device.c.obj)
 .debug_loc     0x00031d82      0x10a zephyr/kernel/libkernel.a(fatal.c.obj)
 .debug_loc     0x00031e8c       0xb5 zephyr/kernel/libkernel.a(idle.c.obj)
 .debug_loc     0x00031f41      0x32d zephyr/kernel/libkernel.a(init.c.obj)
 .debug_loc     0x0003226e      0x4d8 zephyr/kernel/libkernel.a(mempool.c.obj)
 .debug_loc     0x00032746      0xbf4 zephyr/kernel/libkernel.a(queue.c.obj)
 .debug_loc     0x0003333a     0x1c40 zephyr/kernel/libkernel.a(sched.c.obj)
 .debug_loc     0x00034f7a      0x242 zephyr/kernel/libkernel.a(sem.c.obj)
 .debug_loc     0x000351bc       0x51 zephyr/kernel/libkernel.a(system_work_q.c.obj)
 .debug_loc     0x0003520d      0x849 zephyr/kernel/libkernel.a(thread.c.obj)
 .debug_loc     0x00035a56      0x6f5 zephyr/kernel/libkernel.a(work_q.c.obj)
 .debug_loc     0x0003614b      0x7c3 zephyr/kernel/libkernel.a(timeout.c.obj)
 .debug_loc     0x0003690e      0x92b zephyr/kernel/libkernel.a(poll.c.obj)

.debug_macinfo
 *(SORT_BY_ALIGNMENT(.debug_macinfo))

.debug_weaknames
 *(SORT_BY_ALIGNMENT(.debug_weaknames))

.debug_funcnames
 *(SORT_BY_ALIGNMENT(.debug_funcnames))

.debug_typenames
 *(SORT_BY_ALIGNMENT(.debug_typenames))

.debug_varnames
 *(SORT_BY_ALIGNMENT(.debug_varnames))

.debug_pubtypes
 *(SORT_BY_ALIGNMENT(.debug_pubtypes))

.debug_ranges   0x00000000     0x71a8
 *(SORT_BY_ALIGNMENT(.debug_ranges))
 .debug_ranges  0x00000000       0x20 zephyr/arch/arm/core/libarch__arm__core.a(swap_helper.S.obj)
 .debug_ranges  0x00000020       0x38 zephyr/arch/arm/core/libarch__arm__core.a(cpu_idle.S.obj)
 .debug_ranges  0x00000058      0x290 app/libapp.a(main.c.obj)
 .debug_ranges  0x000002e8       0x98 app/libapp.a(board_functions.c.obj)
 .debug_ranges  0x00000380       0x10 app/libapp.a(adc.c.obj)
 .debug_ranges  0x00000390       0x40 zephyr/libzephyr.a(fdtable.c.obj)
 .debug_ranges  0x000003d0      0x268 zephyr/libzephyr.a(mempool.c.obj)
 .debug_ranges  0x00000638       0x10 zephyr/libzephyr.a(thread_entry.c.obj)
 .debug_ranges  0x00000648       0x60 zephyr/libzephyr.a(work_q.c.obj)
 .debug_ranges  0x000006a8      0x138 zephyr/libzephyr.a(printk.c.obj)
 .debug_ranges  0x000007e0       0x10 zephyr/libzephyr.a(configs.c.obj)
 .debug_ranges  0x000007f0       0x28 zephyr/libzephyr.a(soc.c.obj)
 .debug_ranges  0x00000818       0x48 zephyr/libzephyr.a(utils.c.obj)
 .debug_ranges  0x00000860       0x38 zephyr/libzephyr.a(ecc_dh.c.obj)
 .debug_ranges  0x00000898      0x238 zephyr/libzephyr.a(ecc.c.obj)
 .debug_ranges  0x00000ad0       0x48 zephyr/libzephyr.a(aes_encrypt.c.obj)
 .debug_ranges  0x00000b18       0x50 zephyr/libzephyr.a(cmac_mode.c.obj)
 .debug_ranges  0x00000b68       0x30 zephyr/libzephyr.a(system_nrf52810.c.obj)
 .debug_ranges  0x00000b98      0x180 zephyr/libzephyr.a(nrfx_pwm.c.obj)
 .debug_ranges  0x00000d18       0x10 zephyr/libzephyr.a(rand32_entropy_device.c.obj)
 .debug_ranges  0x00000d28       0x20 zephyr/libzephyr.a(uart_console.c.obj)
 .debug_ranges  0x00000d48       0x90 zephyr/libzephyr.a(nrf_power_clock.c.obj)
 .debug_ranges  0x00000dd8       0x30 zephyr/libzephyr.a(sys_clock_init.c.obj)
 .debug_ranges  0x00000e08      0x118 zephyr/libzephyr.a(nrf_rtc_timer.c.obj)
 .debug_ranges  0x00000f20       0x78 zephyr/libzephyr.a(nus.c.obj)
 .debug_ranges  0x00000f98       0x10 zephyr/arch/arm/core/libarch__arm__core.a(swap.c.obj)
 .debug_ranges  0x00000fa8       0x58 zephyr/arch/arm/core/libarch__arm__core.a(irq_manage.c.obj)
 .debug_ranges  0x00001000       0x38 zephyr/arch/arm/core/libarch__arm__core.a(thread.c.obj)
 .debug_ranges  0x00001038       0x20 zephyr/arch/arm/core/libarch__arm__core.a(fatal.c.obj)
 .debug_ranges  0x00001058       0x10 zephyr/arch/arm/core/libarch__arm__core.a(nmi.c.obj)
 .debug_ranges  0x00001068       0x10 zephyr/arch/arm/core/libarch__arm__core.a(prep_c.c.obj)
 .debug_ranges  0x00001078       0x90 zephyr/arch/arm/core/cortex_m/libarch__arm__core__cortex_m.a(fault.c.obj)
 .debug_ranges  0x00001108       0x30 zephyr/arch/arm/core/cortex_m/libarch__arm__core__cortex_m.a(irq_init.c.obj)
 .debug_ranges  0x00001138       0x10 zephyr/arch/arm/core/cortex_m/libarch__arm__core__cortex_m.a(thread_abort.c.obj)
 .debug_ranges  0x00001148       0x18 zephyr/arch/arm/core/cortex_m/mpu/libarch__arm__core__cortex_m__mpu.a(arm_core_mpu.c.obj)
 .debug_ranges  0x00001160      0x178 zephyr/arch/arm/core/cortex_m/mpu/libarch__arm__core__cortex_m__mpu.a(arm_mpu.c.obj)
 .debug_ranges  0x000012d8       0x80 zephyr/lib/libc/minimal/liblib__libc__minimal.a(string.c.obj)
 .debug_ranges  0x00001358       0x78 zephyr/lib/libc/minimal/liblib__libc__minimal.a(stdout_console.c.obj)
 .debug_ranges  0x000013d0       0x20 zephyr/subsys/bluetooth/common/libsubsys__bluetooth__common.a(rpa.c.obj)
 .debug_ranges  0x000013f0      0x168 zephyr/subsys/bluetooth/host/libsubsys__bluetooth__host.a(hci_ecc.c.obj)
 .debug_ranges  0x00001558       0x48 zephyr/subsys/bluetooth/host/libsubsys__bluetooth__host.a(uuid.c.obj)
 .debug_ranges  0x000015a0      0x970 zephyr/subsys/bluetooth/host/libsubsys__bluetooth__host.a(hci_core.c.obj)
 .debug_ranges  0x00001f10      0x450 zephyr/subsys/bluetooth/host/libsubsys__bluetooth__host.a(conn.c.obj)
 .debug_ranges  0x00002360      0x2b8 zephyr/subsys/bluetooth/host/libsubsys__bluetooth__host.a(l2cap.c.obj)
 .debug_ranges  0x00002618      0x450 zephyr/subsys/bluetooth/host/libsubsys__bluetooth__host.a(att.c.obj)
 .debug_ranges  0x00002a68      0x410 zephyr/subsys/bluetooth/host/libsubsys__bluetooth__host.a(gatt.c.obj)
 .debug_ranges  0x00002e78      0x550 zephyr/subsys/bluetooth/host/libsubsys__bluetooth__host.a(smp.c.obj)
 .debug_ranges  0x000033c8      0x148 zephyr/subsys/bluetooth/host/libsubsys__bluetooth__host.a(keys.c.obj)
 .debug_ranges  0x00003510       0x88 zephyr/subsys/bluetooth/controller/libsubsys__bluetooth__controller.a(mem.c.obj)
 .debug_ranges  0x00003598       0x30 zephyr/subsys/bluetooth/controller/libsubsys__bluetooth__controller.a(memq.c.obj)
 .debug_ranges  0x000035c8      0x108 zephyr/subsys/bluetooth/controller/libsubsys__bluetooth__controller.a(mayfly.c.obj)
 .debug_ranges  0x000036d0       0x10 zephyr/subsys/bluetooth/controller/libsubsys__bluetooth__controller.a(util.c.obj)
 .debug_ranges  0x000036e0      0x318 zephyr/subsys/bluetooth/controller/libsubsys__bluetooth__controller.a(ticker.c.obj)
 .debug_ranges  0x000039f8       0x20 zephyr/subsys/bluetooth/controller/libsubsys__bluetooth__controller.a(ll_addr.c.obj)
 .debug_ranges  0x00003a18       0x10 zephyr/subsys/bluetooth/controller/libsubsys__bluetooth__controller.a(ll_tx_pwr.c.obj)
 .debug_ranges  0x00003a28       0xb8 zephyr/subsys/bluetooth/controller/libsubsys__bluetooth__controller.a(hci_driver.c.obj)
 .debug_ranges  0x00003ae0      0x300 zephyr/subsys/bluetooth/controller/libsubsys__bluetooth__controller.a(hci.c.obj)
 .debug_ranges  0x00003de0       0x20 zephyr/subsys/bluetooth/controller/libsubsys__bluetooth__controller.a(crypto.c.obj)
 .debug_ranges  0x00003e00      0xfb0 zephyr/subsys/bluetooth/controller/libsubsys__bluetooth__controller.a(ctrl.c.obj)
 .debug_ranges  0x00004db0       0x40 zephyr/subsys/bluetooth/controller/libsubsys__bluetooth__controller.a(ll.c.obj)
 .debug_ranges  0x00004df0       0x90 zephyr/subsys/bluetooth/controller/libsubsys__bluetooth__controller.a(ll_adv.c.obj)
 .debug_ranges  0x00004e80      0x260 zephyr/subsys/bluetooth/controller/libsubsys__bluetooth__controller.a(ll_filter.c.obj)
 .debug_ranges  0x000050e0       0x30 zephyr/subsys/bluetooth/controller/libsubsys__bluetooth__controller.a(cntr.c.obj)
 .debug_ranges  0x00005110       0xc0 zephyr/subsys/bluetooth/controller/libsubsys__bluetooth__controller.a(ecb.c.obj)
 .debug_ranges  0x000051d0      0x3a8 zephyr/subsys/bluetooth/controller/libsubsys__bluetooth__controller.a(radio.c.obj)
 .debug_ranges  0x00005578       0x40 zephyr/subsys/bluetooth/controller/libsubsys__bluetooth__controller.a(mayfly.c.obj)
 .debug_ranges  0x000055b8       0x50 zephyr/subsys/bluetooth/controller/libsubsys__bluetooth__controller.a(ticker.c.obj)
 .debug_ranges  0x00005608      0x3a0 zephyr/subsys/net/libsubsys__net.a(buf.c.obj)
 .debug_ranges  0x000059a8      0x3b8 zephyr/drivers/gpio/libdrivers__gpio.a(gpio_nrfx.c.obj)
 .debug_ranges  0x00005d60       0x80 zephyr/drivers/pwm/libdrivers__pwm.a(pwm_nrfx.c.obj)
 .debug_ranges  0x00005de0      0x228 zephyr/drivers/serial/libdrivers__serial.a(uart_nrfx_uarte.c.obj)
 .debug_ranges  0x00006008      0x198 zephyr/drivers/entropy/libdrivers__entropy.a(entropy_nrf5.c.obj)
 .debug_ranges  0x000061a0      0x258 zephyr/modules/nrf/lib/dk_buttons_and_leds/lib..__nrf__lib__dk_buttons_and_leds.a(dk_buttons_and_leds.c.obj)
 .debug_ranges  0x000063f8       0x38 zephyr/kernel/libkernel.a(device.c.obj)
 .debug_ranges  0x00006430       0x10 zephyr/kernel/libkernel.a(errno.c.obj)
 .debug_ranges  0x00006440       0x58 zephyr/kernel/libkernel.a(fatal.c.obj)
 .debug_ranges  0x00006498       0x48 zephyr/kernel/libkernel.a(idle.c.obj)
 .debug_ranges  0x000064e0      0x120 zephyr/kernel/libkernel.a(init.c.obj)
 .debug_ranges  0x00006600       0x70 zephyr/kernel/libkernel.a(mempool.c.obj)
 .debug_ranges  0x00006670      0x160 zephyr/kernel/libkernel.a(queue.c.obj)
 .debug_ranges  0x000067d0      0x448 zephyr/kernel/libkernel.a(sched.c.obj)
 .debug_ranges  0x00006c18       0x38 zephyr/kernel/libkernel.a(sem.c.obj)
 .debug_ranges  0x00006c50       0x10 zephyr/kernel/libkernel.a(system_work_q.c.obj)
 .debug_ranges  0x00006c60      0x188 zephyr/kernel/libkernel.a(thread.c.obj)
 .debug_ranges  0x00006de8       0xc0 zephyr/kernel/libkernel.a(work_q.c.obj)
 .debug_ranges  0x00006ea8      0x1b8 zephyr/kernel/libkernel.a(timeout.c.obj)
 .debug_ranges  0x00007060      0x138 zephyr/kernel/libkernel.a(poll.c.obj)
 .debug_ranges  0x00007198       0x10 zephyr/CMakeFiles/offsets.dir/arch/arm/core/offsets/offsets.c.obj

.debug_macro
 *(SORT_BY_ALIGNMENT(.debug_macro))

.ARM.attributes
                0x00000000       0x31
 *(SORT_BY_ALIGNMENT(.ARM.attributes))
 .ARM.attributes
                0x00000000       0x33 zephyr/CMakeFiles/zephyr_prebuilt.dir/misc/empty_file.c.obj
 .ARM.attributes
                0x00000033       0x33 app/libapp.a(main.c.obj)
 .ARM.attributes
                0x00000066       0x33 app/libapp.a(board_functions.c.obj)
 .ARM.attributes
                0x00000099       0x33 app/libapp.a(adc.c.obj)
 .ARM.attributes
                0x000000cc       0x33 zephyr/libzephyr.a(isr_tables.c.obj)
 .ARM.attributes
                0x000000ff       0x33 zephyr/libzephyr.a(sw_isr_common.c.obj)
 .ARM.attributes
                0x00000132       0x33 zephyr/libzephyr.a(crc32_sw.c.obj)
 .ARM.attributes
                0x00000165       0x33 zephyr/libzephyr.a(crc16_sw.c.obj)
 .ARM.attributes
                0x00000198       0x33 zephyr/libzephyr.a(crc8_sw.c.obj)
 .ARM.attributes
                0x000001cb       0x33 zephyr/libzephyr.a(crc7_sw.c.obj)
 .ARM.attributes
                0x000001fe       0x33 zephyr/libzephyr.a(fdtable.c.obj)
 .ARM.attributes
                0x00000231       0x33 zephyr/libzephyr.a(hex.c.obj)
 .ARM.attributes
                0x00000264       0x33 zephyr/libzephyr.a(mempool.c.obj)
 .ARM.attributes
                0x00000297       0x33 zephyr/libzephyr.a(rb.c.obj)
 .ARM.attributes
                0x000002ca       0x33 zephyr/libzephyr.a(sem.c.obj)
 .ARM.attributes
                0x000002fd       0x33 zephyr/libzephyr.a(thread_entry.c.obj)
 .ARM.attributes
                0x00000330       0x33 zephyr/libzephyr.a(timeutil.c.obj)
 .ARM.attributes
                0x00000363       0x33 zephyr/libzephyr.a(work_q.c.obj)
 .ARM.attributes
                0x00000396       0x33 zephyr/libzephyr.a(printk.c.obj)
 .ARM.attributes
                0x000003c9       0x33 zephyr/libzephyr.a(configs.c.obj)
 .ARM.attributes
                0x000003fc       0x33 zephyr/libzephyr.a(soc.c.obj)
 .ARM.attributes
                0x0000042f       0x33 zephyr/libzephyr.a(power.c.obj)
 .ARM.attributes
                0x00000462       0x33 zephyr/libzephyr.a(mpu_regions.c.obj)
 .ARM.attributes
                0x00000495       0x33 zephyr/libzephyr.a(utils.c.obj)
 .ARM.attributes
                0x000004c8       0x33 zephyr/libzephyr.a(ecc_dh.c.obj)
 .ARM.attributes
                0x000004fb       0x33 zephyr/libzephyr.a(ecc.c.obj)
 .ARM.attributes
                0x0000052e       0x33 zephyr/libzephyr.a(aes_decrypt.c.obj)
 .ARM.attributes
                0x00000561       0x33 zephyr/libzephyr.a(aes_encrypt.c.obj)
 .ARM.attributes
                0x00000594       0x33 zephyr/libzephyr.a(cmac_mode.c.obj)
 .ARM.attributes
                0x000005c7       0x33 zephyr/libzephyr.a(system_nrf52810.c.obj)
 .ARM.attributes
                0x000005fa       0x33 zephyr/libzephyr.a(nrfx_glue.c.obj)
 .ARM.attributes
                0x0000062d       0x33 zephyr/libzephyr.a(nrfx_pwm.c.obj)
 .ARM.attributes
                0x00000660       0x33 zephyr/libzephyr.a(addr_utils.c.obj)
 .ARM.attributes
                0x00000693       0x33 zephyr/libzephyr.a(rand32_entropy_device.c.obj)
 .ARM.attributes
                0x000006c6       0x33 zephyr/libzephyr.a(power.c.obj)
 .ARM.attributes
                0x000006f9       0x33 zephyr/libzephyr.a(policy_residency.c.obj)
 .ARM.attributes
                0x0000072c       0x33 zephyr/libzephyr.a(uart_console.c.obj)
 .ARM.attributes
                0x0000075f       0x33 zephyr/libzephyr.a(nrf_power_clock.c.obj)
 .ARM.attributes
                0x00000792       0x33 zephyr/libzephyr.a(sys_clock_init.c.obj)
 .ARM.attributes
                0x000007c5       0x33 zephyr/libzephyr.a(nrf_rtc_timer.c.obj)
 .ARM.attributes
                0x000007f8       0x33 zephyr/libzephyr.a(nus.c.obj)
 .ARM.attributes
                0x0000082b       0x21 zephyr/arch/arm/core/libarch__arm__core.a(exc_exit.S.obj)
 .ARM.attributes
                0x0000084c       0x21 zephyr/arch/arm/core/libarch__arm__core.a(swap_helper.S.obj)
 .ARM.attributes
                0x0000086d       0x21 zephyr/arch/arm/core/libarch__arm__core.a(cpu_idle.S.obj)
 .ARM.attributes
                0x0000088e       0x21 zephyr/arch/arm/core/libarch__arm__core.a(fault_s.S.obj)
 .ARM.attributes
                0x000008af       0x21 zephyr/arch/arm/core/libarch__arm__core.a(nmi_on_reset.S.obj)
 .ARM.attributes
                0x000008d0       0x21 zephyr/arch/arm/core/libarch__arm__core.a(isr_wrapper.S.obj)
 .ARM.attributes
                0x000008f1       0x33 zephyr/arch/arm/core/libarch__arm__core.a(swap.c.obj)
 .ARM.attributes
                0x00000924       0x33 zephyr/arch/arm/core/libarch__arm__core.a(irq_manage.c.obj)
 .ARM.attributes
                0x00000957       0x33 zephyr/arch/arm/core/libarch__arm__core.a(thread.c.obj)
 .ARM.attributes
                0x0000098a       0x33 zephyr/arch/arm/core/libarch__arm__core.a(fatal.c.obj)
 .ARM.attributes
                0x000009bd       0x33 zephyr/arch/arm/core/libarch__arm__core.a(nmi.c.obj)
 .ARM.attributes
                0x000009f0       0x33 zephyr/arch/arm/core/libarch__arm__core.a(prep_c.c.obj)
 .ARM.attributes
                0x00000a23       0x21 zephyr/arch/arm/core/cortex_m/libarch__arm__core__cortex_m.a(vector_table.S.obj)
 .ARM.attributes
                0x00000a44       0x21 zephyr/arch/arm/core/cortex_m/libarch__arm__core__cortex_m.a(reset.S.obj)
 .ARM.attributes
                0x00000a65       0x33 zephyr/arch/arm/core/cortex_m/libarch__arm__core__cortex_m.a(fault.c.obj)
 .ARM.attributes
                0x00000a98       0x33 zephyr/arch/arm/core/cortex_m/libarch__arm__core__cortex_m.a(scb.c.obj)
 .ARM.attributes
                0x00000acb       0x33 zephyr/arch/arm/core/cortex_m/libarch__arm__core__cortex_m.a(irq_init.c.obj)
 .ARM.attributes
                0x00000afe       0x33 zephyr/arch/arm/core/cortex_m/libarch__arm__core__cortex_m.a(thread_abort.c.obj)
 .ARM.attributes
                0x00000b31       0x33 zephyr/arch/arm/core/cortex_m/mpu/libarch__arm__core__cortex_m__mpu.a(arm_core_mpu.c.obj)
 .ARM.attributes
                0x00000b64       0x33 zephyr/arch/arm/core/cortex_m/mpu/libarch__arm__core__cortex_m__mpu.a(arm_mpu.c.obj)
 .ARM.attributes
                0x00000b97       0x33 zephyr/lib/libc/minimal/liblib__libc__minimal.a(atoi.c.obj)
 .ARM.attributes
                0x00000bca       0x33 zephyr/lib/libc/minimal/liblib__libc__minimal.a(strtol.c.obj)
 .ARM.attributes
                0x00000bfd       0x33 zephyr/lib/libc/minimal/liblib__libc__minimal.a(strtoul.c.obj)
 .ARM.attributes
                0x00000c30       0x33 zephyr/lib/libc/minimal/liblib__libc__minimal.a(malloc.c.obj)
 .ARM.attributes
                0x00000c63       0x33 zephyr/lib/libc/minimal/liblib__libc__minimal.a(bsearch.c.obj)
 .ARM.attributes
                0x00000c96       0x33 zephyr/lib/libc/minimal/liblib__libc__minimal.a(exit.c.obj)
 .ARM.attributes
                0x00000cc9       0x33 zephyr/lib/libc/minimal/liblib__libc__minimal.a(strncasecmp.c.obj)
 .ARM.attributes
                0x00000cfc       0x33 zephyr/lib/libc/minimal/liblib__libc__minimal.a(strstr.c.obj)
 .ARM.attributes
                0x00000d2f       0x33 zephyr/lib/libc/minimal/liblib__libc__minimal.a(string.c.obj)
 .ARM.attributes
                0x00000d62       0x33 zephyr/lib/libc/minimal/liblib__libc__minimal.a(strspn.c.obj)
 .ARM.attributes
                0x00000d95       0x33 zephyr/lib/libc/minimal/liblib__libc__minimal.a(prf.c.obj)
 .ARM.attributes
                0x00000dc8       0x33 zephyr/lib/libc/minimal/liblib__libc__minimal.a(stdout_console.c.obj)
 .ARM.attributes
                0x00000dfb       0x33 zephyr/lib/libc/minimal/liblib__libc__minimal.a(sprintf.c.obj)
 .ARM.attributes
                0x00000e2e       0x33 zephyr/lib/libc/minimal/liblib__libc__minimal.a(fprintf.c.obj)
 .ARM.attributes
                0x00000e61       0x33 zephyr/lib/libc/minimal/liblib__libc__minimal.a(gmtime.c.obj)
 .ARM.attributes
                0x00000e94       0x33 zephyr/subsys/bluetooth/common/libsubsys__bluetooth__common.a(dummy.c.obj)
 .ARM.attributes
                0x00000ec7       0x33 zephyr/subsys/bluetooth/common/libsubsys__bluetooth__common.a(log.c.obj)
 .ARM.attributes
                0x00000efa       0x33 zephyr/subsys/bluetooth/common/libsubsys__bluetooth__common.a(rpa.c.obj)
 .ARM.attributes
                0x00000f2d       0x33 zephyr/subsys/bluetooth/host/libsubsys__bluetooth__host.a(hci_ecc.c.obj)
 .ARM.attributes
                0x00000f60       0x33 zephyr/subsys/bluetooth/host/libsubsys__bluetooth__host.a(uuid.c.obj)
 .ARM.attributes
                0x00000f93       0x33 zephyr/subsys/bluetooth/host/libsubsys__bluetooth__host.a(hci_core.c.obj)
 .ARM.attributes
                0x00000fc6       0x33 zephyr/subsys/bluetooth/host/libsubsys__bluetooth__host.a(conn.c.obj)
 .ARM.attributes
                0x00000ff9       0x33 zephyr/subsys/bluetooth/host/libsubsys__bluetooth__host.a(l2cap.c.obj)
 .ARM.attributes
                0x0000102c       0x33 zephyr/subsys/bluetooth/host/libsubsys__bluetooth__host.a(att.c.obj)
 .ARM.attributes
                0x0000105f       0x33 zephyr/subsys/bluetooth/host/libsubsys__bluetooth__host.a(gatt.c.obj)
 .ARM.attributes
                0x00001092       0x33 zephyr/subsys/bluetooth/host/libsubsys__bluetooth__host.a(smp.c.obj)
 .ARM.attributes
                0x000010c5       0x33 zephyr/subsys/bluetooth/host/libsubsys__bluetooth__host.a(keys.c.obj)
 .ARM.attributes
                0x000010f8       0x33 zephyr/subsys/bluetooth/controller/libsubsys__bluetooth__controller.a(mem.c.obj)
 .ARM.attributes
                0x0000112b       0x33 zephyr/subsys/bluetooth/controller/libsubsys__bluetooth__controller.a(memq.c.obj)
 .ARM.attributes
                0x0000115e       0x33 zephyr/subsys/bluetooth/controller/libsubsys__bluetooth__controller.a(mayfly.c.obj)
 .ARM.attributes
                0x00001191       0x33 zephyr/subsys/bluetooth/controller/libsubsys__bluetooth__controller.a(util.c.obj)
 .ARM.attributes
                0x000011c4       0x33 zephyr/subsys/bluetooth/controller/libsubsys__bluetooth__controller.a(ticker.c.obj)
 .ARM.attributes
                0x000011f7       0x33 zephyr/subsys/bluetooth/controller/libsubsys__bluetooth__controller.a(ll_addr.c.obj)
 .ARM.attributes
                0x0000122a       0x33 zephyr/subsys/bluetooth/controller/libsubsys__bluetooth__controller.a(ll_tx_pwr.c.obj)
 .ARM.attributes
                0x0000125d       0x33 zephyr/subsys/bluetooth/controller/libsubsys__bluetooth__controller.a(hci_driver.c.obj)
 .ARM.attributes
                0x00001290       0x33 zephyr/subsys/bluetooth/controller/libsubsys__bluetooth__controller.a(hci.c.obj)
 .ARM.attributes
                0x000012c3       0x33 zephyr/subsys/bluetooth/controller/libsubsys__bluetooth__controller.a(crypto.c.obj)
 .ARM.attributes
                0x000012f6       0x33 zephyr/subsys/bluetooth/controller/libsubsys__bluetooth__controller.a(ctrl.c.obj)
 .ARM.attributes
                0x00001329       0x33 zephyr/subsys/bluetooth/controller/libsubsys__bluetooth__controller.a(ll.c.obj)
 .ARM.attributes
                0x0000135c       0x33 zephyr/subsys/bluetooth/controller/libsubsys__bluetooth__controller.a(ll_adv.c.obj)
 .ARM.attributes
                0x0000138f       0x33 zephyr/subsys/bluetooth/controller/libsubsys__bluetooth__controller.a(ll_filter.c.obj)
 .ARM.attributes
                0x000013c2       0x33 zephyr/subsys/bluetooth/controller/libsubsys__bluetooth__controller.a(ll_adv_aux.c.obj)
 .ARM.attributes
                0x000013f5       0x33 zephyr/subsys/bluetooth/controller/libsubsys__bluetooth__controller.a(cntr.c.obj)
 .ARM.attributes
                0x00001428       0x33 zephyr/subsys/bluetooth/controller/libsubsys__bluetooth__controller.a(ecb.c.obj)
 .ARM.attributes
                0x0000145b       0x33 zephyr/subsys/bluetooth/controller/libsubsys__bluetooth__controller.a(radio.c.obj)
 .ARM.attributes
                0x0000148e       0x33 zephyr/subsys/bluetooth/controller/libsubsys__bluetooth__controller.a(mayfly.c.obj)
 .ARM.attributes
                0x000014c1       0x33 zephyr/subsys/bluetooth/controller/libsubsys__bluetooth__controller.a(ticker.c.obj)
 .ARM.attributes
                0x000014f4       0x33 zephyr/subsys/net/libsubsys__net.a(buf.c.obj)
 .ARM.attributes
                0x00001527       0x33 zephyr/drivers/gpio/libdrivers__gpio.a(gpio_nrfx.c.obj)
 .ARM.attributes
                0x0000155a       0x33 zephyr/drivers/pwm/libdrivers__pwm.a(pwm_nrfx.c.obj)
 .ARM.attributes
                0x0000158d       0x33 zephyr/drivers/serial/libdrivers__serial.a(uart_nrfx_uarte.c.obj)
 .ARM.attributes
                0x000015c0       0x33 zephyr/drivers/entropy/libdrivers__entropy.a(entropy_nrf5.c.obj)
 .ARM.attributes
                0x000015f3       0x33 zephyr/modules/nrf/lib/dk_buttons_and_leds/lib..__nrf__lib__dk_buttons_and_leds.a(dk_buttons_and_leds.c.obj)
 .ARM.attributes
                0x00001626       0x33 zephyr/kernel/libkernel.a(device.c.obj)
 .ARM.attributes
                0x00001659       0x33 zephyr/kernel/libkernel.a(errno.c.obj)
 .ARM.attributes
                0x0000168c       0x33 zephyr/kernel/libkernel.a(fatal.c.obj)
 .ARM.attributes
                0x000016bf       0x33 zephyr/kernel/libkernel.a(idle.c.obj)
 .ARM.attributes
                0x000016f2       0x33 zephyr/kernel/libkernel.a(init.c.obj)
 .ARM.attributes
                0x00001725       0x33 zephyr/kernel/libkernel.a(mempool.c.obj)
 .ARM.attributes
                0x00001758       0x33 zephyr/kernel/libkernel.a(mutex.c.obj)
 .ARM.attributes
                0x0000178b       0x33 zephyr/kernel/libkernel.a(queue.c.obj)
 .ARM.attributes
                0x000017be       0x33 zephyr/kernel/libkernel.a(sched.c.obj)
 .ARM.attributes
                0x000017f1       0x33 zephyr/kernel/libkernel.a(sem.c.obj)
 .ARM.attributes
                0x00001824       0x33 zephyr/kernel/libkernel.a(system_work_q.c.obj)
 .ARM.attributes
                0x00001857       0x33 zephyr/kernel/libkernel.a(thread.c.obj)
 .ARM.attributes
                0x0000188a       0x33 zephyr/kernel/libkernel.a(work_q.c.obj)
 .ARM.attributes
                0x000018bd       0x33 zephyr/kernel/libkernel.a(timeout.c.obj)
 .ARM.attributes
                0x000018f0       0x33 zephyr/kernel/libkernel.a(poll.c.obj)
 .ARM.attributes
                0x00001923       0x33 zephyr/CMakeFiles/offsets.dir/arch/arm/core/offsets/offsets.c.obj
 .ARM.attributes
                0x00001956       0x1e c:/program files (x86)/gnu tools arm embedded/7 2018-q2-update/bin/../lib/gcc/arm-none-eabi/7.3.1/thumb/v7e-m\libgcc.a(_arm_addsubsf3.o)
 .ARM.attributes
                0x00001974       0x1e c:/program files (x86)/gnu tools arm embedded/7 2018-q2-update/bin/../lib/gcc/arm-none-eabi/7.3.1/thumb/v7e-m\libgcc.a(_arm_muldivsf3.o)
 .ARM.attributes
                0x00001992       0x1e c:/program files (x86)/gnu tools arm embedded/7 2018-q2-update/bin/../lib/gcc/arm-none-eabi/7.3.1/thumb/v7e-m\libgcc.a(_arm_fixsfsi.o)
 .ARM.attributes
                0x000019b0       0x1e c:/program files (x86)/gnu tools arm embedded/7 2018-q2-update/bin/../lib/gcc/arm-none-eabi/7.3.1/thumb/v7e-m\libgcc.a(_arm_fixunssfsi.o)
 .ARM.attributes
                0x000019ce       0x1e c:/program files (x86)/gnu tools arm embedded/7 2018-q2-update/bin/../lib/gcc/arm-none-eabi/7.3.1/thumb/v7e-m\libgcc.a(_aeabi_ldivmod.o)
 .ARM.attributes
                0x000019ec       0x1e c:/program files (x86)/gnu tools arm embedded/7 2018-q2-update/bin/../lib/gcc/arm-none-eabi/7.3.1/thumb/v7e-m\libgcc.a(_aeabi_uldivmod.o)
 .ARM.attributes
                0x00001a0a       0x2e c:/program files (x86)/gnu tools arm embedded/7 2018-q2-update/bin/../lib/gcc/arm-none-eabi/7.3.1/thumb/v7e-m\libgcc.a(_udivmoddi4.o)
 .ARM.attributes
                0x00001a38       0x1e c:/program files (x86)/gnu tools arm embedded/7 2018-q2-update/bin/../lib/gcc/arm-none-eabi/7.3.1/thumb/v7e-m\libgcc.a(_dvmd_tls.o)
 *(SORT_BY_ALIGNMENT(.gnu.attributes))

.last_section   0x00018c2f        0x0
                0x00018c2f                _flash_used = (LOADADDR (.last_section) - _image_rom_start)
LOAD app/libapp.a
LOAD zephyr/libzephyr.a
LOAD zephyr/arch/arm/core/libarch__arm__core.a
LOAD zephyr/arch/arm/core/cortex_m/libarch__arm__core__cortex_m.a
LOAD zephyr/arch/arm/core/cortex_m/mpu/libarch__arm__core__cortex_m__mpu.a
LOAD zephyr/lib/libc/minimal/liblib__libc__minimal.a
LOAD zephyr/subsys/bluetooth/common/libsubsys__bluetooth__common.a
LOAD zephyr/subsys/bluetooth/host/libsubsys__bluetooth__host.a
LOAD zephyr/subsys/bluetooth/controller/libsubsys__bluetooth__controller.a
LOAD zephyr/subsys/net/libsubsys__net.a
LOAD zephyr/drivers/gpio/libdrivers__gpio.a
LOAD zephyr/drivers/pwm/libdrivers__pwm.a
LOAD zephyr/drivers/serial/libdrivers__serial.a
LOAD zephyr/drivers/entropy/libdrivers__entropy.a
LOAD zephyr/modules/nrf/lib/dk_buttons_and_leds/lib..__nrf__lib__dk_buttons_and_leds.a
LOAD zephyr/kernel/libkernel.a
LOAD zephyr/CMakeFiles/offsets.dir/arch/arm/core/offsets/offsets.c.obj
LOAD c:/program files (x86)/gnu tools arm embedded/7 2018-q2-update/bin/../lib/gcc/arm-none-eabi/7.3.1/thumb/v7e-m\libgcc.a
OUTPUT(zephyr\zephyr_prebuilt.elf elf32-littlearm)
